MPLINK 4.42, Linker
Linker Map File - Created Tue Jan 27 10:09:58 2015

                                 Section Info
                  Section       Type    Address   Location Size(Bytes)
                ---------  ---------  ---------  ---------  ---------
               _entry_scn       code   0x000000    program   0x000006
    HIGH_INTERRUPT_VECTOR       code   0x000008    program   0x000006
     LOW_INTERRUPT_VECTOR       code   0x000018    program   0x000006
    REMAPPED_RESET_VECTOR       code   0x001000    program   0x000006
           .code___init.o       code   0x001006    program   0x000002
REMAPPED_HIGH_INTERRUPT_VECTOR       code   0x001008    program   0x000006
         .code_busy_eep.o       code   0x00100e    program   0x000006
REMAPPED_LOW_INTERRUPT_VECTOR       code   0x001018    program   0x000006
                   .cinit    romdata   0x00101e    program   0x00000e
       .code_usb_device.o       code   0x00102c    program   0x0012ec
 .code_usb_function_cdc.o       code   0x002318    program   0x0004f8
    .code_usb_connector.o       code   0x002810    program   0x00043a
             .code_main.o       code   0x002c4a    program   0x0003ce
    .code_i2c_connector.o       code   0x003018    program   0x00019c
.romdata_usb_descriptors.o    romdata   0x0031b4    program   0x0000c9
 .idata_i2c_connector.o_i    romdata   0x00327d    program   0x000000
 .romdata_i2c_connector.o    romdata   0x00327d    program   0x000000
      .idata_busy_eep.o_i    romdata   0x00327d    program   0x000000
      .romdata_busy_eep.o    romdata   0x00327d    program   0x000000
      .idata_fxd3232u.o_i    romdata   0x00327d    program   0x000000
      .romdata_fxd3232u.o    romdata   0x00327d    program   0x000000
      .idata_i2c_idle.o_i    romdata   0x00327d    program   0x000000
      .romdata_i2c_idle.o    romdata   0x00327d    program   0x000000
      .idata_i2c_open.o_i    romdata   0x00327d    program   0x000000
      .romdata_i2c_open.o    romdata   0x00327d    program   0x000000
      .idata_i2c_read.o_i    romdata   0x00327d    program   0x000000
      .romdata_i2c_read.o    romdata   0x00327d    program   0x000000
        .idata_read_B.o_i    romdata   0x00327d    program   0x000000
        .romdata_read_B.o    romdata   0x00327d    program   0x000000
      .idata_i2c_writ.o_i    romdata   0x00327d    program   0x000000
      .romdata_i2c_writ.o    romdata   0x00327d    program   0x000000
       .idata_write_B.o_i    romdata   0x00327d    program   0x000000
       .romdata_write_B.o    romdata   0x00327d    program   0x000000
        .idata___init.o_i    romdata   0x00327d    program   0x000000
        .romdata___init.o    romdata   0x00327d    program   0x000000
         .romdata_c018i.o    romdata   0x00327d    program   0x000000
         .idata_c018i.o_i    romdata   0x00327d    program   0x000000
.idata_usb_function_cdc.o_i    romdata   0x00327d    program   0x000000
.romdata_usb_function_cdc.o    romdata   0x00327d    program   0x000000
    .idata_usb_device.o_i    romdata   0x00327d    program   0x000000
    .romdata_usb_device.o    romdata   0x00327d    program   0x000000
 .romdata_usb_connector.o    romdata   0x00327d    program   0x000000
.idata_usb_descriptors.o_i    romdata   0x00327d    program   0x000000
 .idata_usb_connector.o_i    romdata   0x00327d    program   0x000000
          .romdata_main.o    romdata   0x00327d    program   0x000000
             .stringtable    romdata   0x00327d    program   0x000000
  .code_usb_descriptors.o       code   0x00327e    program   0x000000
               _cinit_scn       code   0x00327e    program   0x00009e
            .code_c018i.o       code   0x00327e    program   0x000000
                   STRING       code   0x00331c    program   0x00008a
         .code_i2c_writ.o       code   0x0033a6    program   0x000072
          .code_write_B.o       code   0x003418    program   0x00004e
         .code_fxd3232u.o       code   0x003466    program   0x000048
           .code_read_B.o       code   0x0034ae    program   0x000044
         .code_i2c_open.o       code   0x0034f2    program   0x000036
                    .code       code   0x003528    program   0x000020
             _startup_scn       code   0x003548    program   0x00001c
         .code_i2c_read.o       code   0x003564    program   0x00001a
         .code_i2c_idle.o       code   0x00357e    program   0x00000e
          .idata_main.o_i    romdata   0x00358c    program   0x000006
    .config_300000_main.o    romdata   0x300000    program   0x000001
    .config_300001_main.o    romdata   0x300001    program   0x000001
    .config_300002_main.o    romdata   0x300002    program   0x000001
    .config_300003_main.o    romdata   0x300003    program   0x000001
    .config_300005_main.o    romdata   0x300005    program   0x000001
    .config_300006_main.o    romdata   0x300006    program   0x000001
    .config_300008_main.o    romdata   0x300008    program   0x000001
    .config_300009_main.o    romdata   0x300009    program   0x000001
    .config_30000a_main.o    romdata   0x30000a    program   0x000001
    .config_30000b_main.o    romdata   0x30000b    program   0x000001
    .config_30000c_main.o    romdata   0x30000c    program   0x000001
    .config_30000d_main.o    romdata   0x30000d    program   0x000001
                MATH_DATA      udata   0x000000       data   0x000010
                 .tmpdata      udata   0x000010       data   0x000008
   .udata_usb_connector.o      udata   0x000060       data   0x000045
      .udata_usb_device.o      udata   0x0000a5       data   0x00003a
.udata_usb_function_cdc.o      udata   0x0000df       data   0x000019
            .udata_main.o      udata   0x0000f8       data   0x000008
                   .stack      udata   0x000100       data   0x000040
           .udata_c018i.o      udata   0x000140       data   0x00000a
            .idata_main.o      idata   0x00014a       data   0x000006
          .idata___init.o      idata   0x000150       data   0x000000
          .udata___init.o      udata   0x000150       data   0x000000
         .idata_write_B.o      idata   0x000150       data   0x000000
         .udata_write_B.o      udata   0x000150       data   0x000000
        .idata_i2c_writ.o      idata   0x000150       data   0x000000
        .udata_i2c_writ.o      udata   0x000150       data   0x000000
          .idata_read_B.o      idata   0x000150       data   0x000000
          .udata_read_B.o      udata   0x000150       data   0x000000
        .idata_i2c_read.o      idata   0x000150       data   0x000000
        .udata_i2c_read.o      udata   0x000150       data   0x000000
        .idata_i2c_open.o      idata   0x000150       data   0x000000
        .udata_i2c_open.o      udata   0x000150       data   0x000000
        .idata_i2c_idle.o      idata   0x000150       data   0x000000
        .udata_i2c_idle.o      udata   0x000150       data   0x000000
        .idata_fxd3232u.o      idata   0x000150       data   0x000000
        .udata_fxd3232u.o      udata   0x000150       data   0x000000
        .idata_busy_eep.o      idata   0x000150       data   0x000000
        .udata_busy_eep.o      udata   0x000150       data   0x000000
   .idata_i2c_connector.o      idata   0x000150       data   0x000000
   .udata_i2c_connector.o      udata   0x000150       data   0x000000
   .idata_usb_connector.o      idata   0x000150       data   0x000000
           .idata_c018i.o      idata   0x000150       data   0x000000
      .idata_usb_device.o      idata   0x000150       data   0x000000
 .idata_usb_descriptors.o      idata   0x000150       data   0x000000
 .udata_usb_descriptors.o      udata   0x000150       data   0x000000
.idata_usb_function_cdc.o      idata   0x000150       data   0x000000
                  USB_BDT      udata   0x000200       data   0x000050
                  usbram2      udata   0x000250       data   0x00008f
              SFR_BANKED0      udata   0x000f53       data   0x00000d
            SFR_UNBANKED0      udata   0x000f60       data   0x0000a0



                              Program Memory Usage 
                               Start         End      
                           ---------   ---------      
                            0x000000    0x000005      
                            0x000008    0x00000d      
                            0x000018    0x00001d      
                            0x001000    0x001013      
                            0x001018    0x00327c      
                            0x00327e    0x003591      
                            0x300000    0x300003      
                            0x300005    0x300006      
                            0x300008    0x30000d      
            9643 out of 16408 program addresses used, program memory utilization is 58%



                              Symbols - Sorted by Name
                     Name    Address   Location    Storage File                     
                ---------  ---------  ---------  --------- ---------                
                 Busy_eep   0x00100e    program     extern C:\MCC18\src\pmc_common\EEP\busy_eep.c
                CDCInitEP   0x0023be    program     extern C:\Microchip Solutions v2012-07-18\Microchip\USB\CDC Device Driver\usb_function_cdc.c
             CDCTxService   0x0026bc    program     extern C:\Microchip Solutions v2012-07-18\Microchip\USB\CDC Device Driver\usb_function_cdc.c
                 FXD3232U   0x003466    program     extern C:\MCC18\src\traditional\math\fxd3232u.c
        GetDescendentMode   0x002ec2    program     extern C:\GitRepository\stavebnice03\PIC\interface\main.c
                   GetI2C   0x0030e4    program     extern C:\GitRepository\stavebnice03\PIC\interface\i2c_connector.c
                 GetState   0x002edc    program     extern C:\GitRepository\stavebnice03\PIC\interface\main.c
                 High_ISR   0x000008    program     extern C:\GitRepository\stavebnice03\PIC\interface\usb_connector.c
                  I2CInit   0x003018    program     extern C:\GitRepository\stavebnice03\PIC\interface\i2c_connector.c
                  IdleI2C   0x00357e    program     extern C:\MCC18\src\pmc_common\i2c\i2c_idle.c
            InitializeUSB   0x0028cc    program     extern C:\GitRepository\stavebnice03\PIC\interface\usb_connector.c
              IsConnected   0x002c4a    program     extern C:\GitRepository\stavebnice03\PIC\interface\main.c
                  Low_ISR   0x000018    program     extern C:\GitRepository\stavebnice03\PIC\interface\usb_connector.c
                  OpenI2C   0x0034f2    program     extern C:\MCC18\src\pmc_common\i2c\i2c_open.c
               ProcessUSB   0x0029d2    program     extern C:\GitRepository\stavebnice03\PIC\interface\usb_connector.c
             PutAndGetI2C   0x003164    program     extern C:\GitRepository\stavebnice03\PIC\interface\i2c_connector.c
                   PutI2C   0x003064    program     extern C:\GitRepository\stavebnice03\PIC\interface\i2c_connector.c
            PutI2CCommand   0x002dce    program     extern C:\GitRepository\stavebnice03\PIC\interface\main.c
               PutUsbData   0x002c1e    program     extern C:\GitRepository\stavebnice03\PIC\interface\usb_connector.c
                  ReadI2C   0x003564    program     extern C:\MCC18\src\pmc_common\i2c\i2c_read.c
               Read_b_eep   0x0034ae    program     extern C:\MCC18\src\pmc_common\EEP\read_B.c
        Remapped_High_ISR   0x001008    program     extern C:\GitRepository\stavebnice03\PIC\interface\usb_connector.c
         Remapped_Low_ISR   0x001018    program     extern C:\GitRepository\stavebnice03\PIC\interface\usb_connector.c
                 Response   0x002cba    program     extern C:\GitRepository\stavebnice03\PIC\interface\main.c
             ResponseChar   0x002d20    program     extern C:\GitRepository\stavebnice03\PIC\interface\main.c
        SetDescendentMode   0x002e68    program     extern C:\GitRepository\stavebnice03\PIC\interface\main.c
                 SetState   0x002d52    program     extern C:\GitRepository\stavebnice03\PIC\interface\main.c
       USBCBCheckOtherReq   0x002b62    program     extern C:\GitRepository\stavebnice03\PIC\interface\usb_connector.c
        USBCBErrorHandler   0x002b60    program     extern C:\GitRepository\stavebnice03\PIC\interface\usb_connector.c
              USBCBInitEP   0x002b68    program     extern C:\GitRepository\stavebnice03\PIC\interface\usb_connector.c
          USBCBSendResume   0x002b6c    program     extern C:\GitRepository\stavebnice03\PIC\interface\usb_connector.c
    USBCBStdSetDscHandler   0x002b66    program     extern C:\GitRepository\stavebnice03\PIC\interface\usb_connector.c
             USBCBSuspend   0x002b5a    program     extern C:\GitRepository\stavebnice03\PIC\interface\usb_connector.c
     USBCBWakeFromSuspend   0x002b5c    program     extern C:\GitRepository\stavebnice03\PIC\interface\usb_connector.c
        USBCB_SOF_Handler   0x002b5e    program     extern C:\GitRepository\stavebnice03\PIC\interface\usb_connector.c
       USBCDCEventHandler   0x002426    program     extern C:\Microchip Solutions v2012-07-18\Microchip\USB\CDC Device Driver\usb_function_cdc.c
              USBCancelIO   0x001504    program     extern C:\Microchip Solutions v2012-07-18\Microchip\USB\usb_device.c
       USBCheckCDCRequest   0x002318    program     extern C:\Microchip Solutions v2012-07-18\Microchip\USB\CDC Device Driver\usb_function_cdc.c
       USBCheckStdRequest   0x001fc2    program     static C:\Microchip Solutions v2012-07-18\Microchip\USB\usb_device.c
     USBConfigureEndpoint   0x001712    program     static C:\Microchip Solutions v2012-07-18\Microchip\USB\usb_device.c
  USBCtrlEPAllowDataStage   0x001692    program     extern C:\Microchip Solutions v2012-07-18\Microchip\USB\usb_device.c
USBCtrlEPAllowStatusStage   0x0015f0    program     extern C:\Microchip Solutions v2012-07-18\Microchip\USB\usb_device.c
         USBCtrlEPService   0x001d94    program     static C:\Microchip Solutions v2012-07-18\Microchip\USB\usb_device.c
 USBCtrlEPServiceComplete   0x0017cc    program     static C:\Microchip Solutions v2012-07-18\Microchip\USB\usb_device.c
      USBCtrlTrfInHandler   0x001f08    program     static C:\Microchip Solutions v2012-07-18\Microchip\USB\usb_device.c
     USBCtrlTrfOutHandler   0x001ebe    program     static C:\Microchip Solutions v2012-07-18\Microchip\USB\usb_device.c
      USBCtrlTrfRxService   0x001952    program     static C:\Microchip Solutions v2012-07-18\Microchip\USB\usb_device.c
   USBCtrlTrfSetupHandler   0x001e60    program     static C:\Microchip Solutions v2012-07-18\Microchip\USB\usb_device.c
      USBCtrlTrfTxService   0x00188e    program     static C:\Microchip Solutions v2012-07-18\Microchip\USB\usb_device.c
          USBDeviceAttach   0x0015c0    program     extern C:\Microchip Solutions v2012-07-18\Microchip\USB\usb_device.c
          USBDeviceDetach   0x0015b4    program     extern C:\Microchip Solutions v2012-07-18\Microchip\USB\usb_device.c
            USBDeviceInit   0x00102c    program     extern C:\Microchip Solutions v2012-07-18\Microchip\USB\usb_device.c
           USBDeviceTasks   0x00114c    program     extern C:\Microchip Solutions v2012-07-18\Microchip\USB\usb_device.c
        USBEnableEndpoint   0x0012b0    program     extern C:\Microchip Solutions v2012-07-18\Microchip\USB\usb_device.c
         USBStallEndpoint   0x001424    program     extern C:\Microchip Solutions v2012-07-18\Microchip\USB\usb_device.c
          USBStallHandler   0x001d08    program     static C:\Microchip Solutions v2012-07-18\Microchip\USB\usb_device.c
  USBStdFeatureReqHandler   0x00208a    program     static C:\Microchip Solutions v2012-07-18\Microchip\USB\usb_device.c
      USBStdGetDscHandler   0x001b78    program     static C:\Microchip Solutions v2012-07-18\Microchip\USB\usb_device.c
   USBStdGetStatusHandler   0x001c38    program     static C:\Microchip Solutions v2012-07-18\Microchip\USB\usb_device.c
      USBStdSetCfgHandler   0x001a92    program     static C:\Microchip Solutions v2012-07-18\Microchip\USB\usb_device.c
               USBSuspend   0x001d3c    program     static C:\Microchip Solutions v2012-07-18\Microchip\USB\usb_device.c
     USBTransferOnePacket   0x00131e    program     extern C:\Microchip Solutions v2012-07-18\Microchip\USB\usb_device.c
       USBWakeFromSuspend   0x001d66    program     static C:\Microchip Solutions v2012-07-18\Microchip\USB\usb_device.c
               USB_CD_Ptr   0x003275    program     extern C:\GitRepository\stavebnice03\PIC\interface\usb_descriptors.c
               USB_SD_Ptr   0x003277    program     extern C:\GitRepository\stavebnice03\PIC\interface\usb_descriptors.c
USER_USB_CALLBACK_EVENT_HANDLER   0x002b88    program     extern C:\GitRepository\stavebnice03\PIC\interface\usb_connector.c
                 UserInit   0x0028da    program     extern C:\GitRepository\stavebnice03\PIC\interface\usb_connector.c
                 WriteI2C   0x0033a6    program     extern C:\MCC18\src\pmc_common\i2c\i2c_writ.c
              Write_b_eep   0x003418    program     extern C:\MCC18\src\pmc_common\EEP\write_B.c
  YourHighPriorityISRCode   0x002810    program     extern C:\GitRepository\stavebnice03\PIC\interface\usb_connector.c
   YourLowPriorityISRCode   0x0028a6    program     extern C:\GitRepository\stavebnice03\PIC\interface\usb_connector.c
              _2jContinue   0x003392    program     static C:\MCC18\src\traditional\stdclib\memset.asm
                   _3jEnd   0x00339c    program     static C:\MCC18\src\traditional\stdclib\memset.asm
              _4jContinue   0x003350    program     static C:\MCC18\src\traditional\stdclib\memcpy.asm
                   _5jEnd   0x00335a    program     static C:\MCC18\src\traditional\stdclib\memcpy.asm
     ___case_114_lbl00043   0x002c0c    program     static                          
     ___case_115_lbl00039   0x002bfc    program     static                          
     ___case_116_lbl00041   0x002c04    program     static                          
     ___case_117_lbl00040   0x002c00    program     static                          
       ___case_1_lbl00036   0x002bf0    program     static                          
       ___case_2_lbl00037   0x002bf4    program     static                          
   ___case_32767_lbl00042   0x002c08    program     static                          
       ___case_3_lbl00038   0x002bf8    program     static                          
      ___default_lbl00044   0x002c10    program     static                          
       ___return_lbl00000   0x001004    program     static                          
       ___return_lbl00000   0x0034ac    program     static                          
       ___return_lbl00000   0x0034e6    program     static                          
       ___return_lbl00000   0x000004    program     static                          
       ___return_lbl00001   0x00100c    program     static                          
       ___return_lbl00001   0x003562    program     static                          
       ___return_lbl00002   0x00331a    program     static                          
       ___return_lbl00002   0x00101c    program     static                          
       ___return_lbl00003   0x00000c    program     static                          
       ___return_lbl00004   0x00001c    program     static                          
       ___return_lbl00034   0x002c16    program     static                          
   ___switchexit_lbl00035   0x002c12    program     static                          
               __config_0   0x300000    program     static C:\GitRepository\stavebnice03\PIC\interface\main.c
               __config_1   0x300001    program     static C:\GitRepository\stavebnice03\PIC\interface\main.c
              __config_10   0x30000c    program     static C:\GitRepository\stavebnice03\PIC\interface\main.c
              __config_11   0x30000d    program     static C:\GitRepository\stavebnice03\PIC\interface\main.c
               __config_2   0x300002    program     static C:\GitRepository\stavebnice03\PIC\interface\main.c
               __config_3   0x300003    program     static C:\GitRepository\stavebnice03\PIC\interface\main.c
               __config_4   0x300005    program     static C:\GitRepository\stavebnice03\PIC\interface\main.c
               __config_5   0x300006    program     static C:\GitRepository\stavebnice03\PIC\interface\main.c
               __config_6   0x300008    program     static C:\GitRepository\stavebnice03\PIC\interface\main.c
               __config_7   0x300009    program     static C:\GitRepository\stavebnice03\PIC\interface\main.c
               __config_8   0x30000a    program     static C:\GitRepository\stavebnice03\PIC\interface\main.c
               __config_9   0x30000b    program     static C:\GitRepository\stavebnice03\PIC\interface\main.c
                   __init   0x001006    program     extern C:\MCC18\src\traditional\stdclib\__init.c
              __tmplbl_10   0x002bec    program     static                          
               __tmplbl_3   0x002ba4    program     static                          
               __tmplbl_4   0x002bb0    program     static                          
               __tmplbl_5   0x002bba    program     static                          
               __tmplbl_6   0x002bc4    program     static                          
               __tmplbl_7   0x002bce    program     static                          
               __tmplbl_8   0x002bd8    program     static                          
               __tmplbl_9   0x002be2    program     static                          
            __zero_memory   0x003528    program     extern C:\MCC18\src\traditional\proc\p18F14K50.asm
                _do_cinit   0x00327e    program     extern C:\MCC18\src\traditional\startup\c018i.c
                   _entry   0x000000    program     extern C:\MCC18\src\traditional\startup\c018i.c
                   _false   0x0034a8    program     static                          
                   _reset   0x001000    program     extern C:\GitRepository\stavebnice03\PIC\interface\usb_connector.c
                 _startup   0x003548    program     extern C:\MCC18\src\traditional\startup\c018i.c
                compare_l   0x00353e    program     static C:\MCC18\src\traditional\proc\p18F14K50.asm
        configDescriptor1   0x0031c6    program     extern C:\GitRepository\stavebnice03\PIC\interface\usb_descriptors.c
                copy_loop   0x0032f0    program     static                          
            copy_one_byte   0x0032f6    program     static                          
               device_dsc   0x0031b4    program     extern C:\GitRepository\stavebnice03\PIC\interface\usb_descriptors.c
                     done   0x00331a    program     static                          
             done_copying   0x003304    program     static                          
             getsUSBUSART   0x0024b2    program     extern C:\Microchip Solutions v2012-07-18\Microchip\USB\CDC Device Driver\usb_function_cdc.c
                     jEnd   0x003360    program     static C:\MCC18\src\traditional\stdclib\memcpy.asm
                     jEnd   0x0033a4    program     static C:\MCC18\src\traditional\stdclib\memset.asm
                    jLoop   0x003386    program     static C:\MCC18\src\traditional\stdclib\memset.asm
                    jLoop   0x003344    program     static C:\MCC18\src\traditional\stdclib\memcpy.asm
                     loop   0x003474    program     static                          
                     loop   0x003558    program     static                          
                   loop_h   0x003536    program     static C:\MCC18\src\traditional\proc\p18F14K50.asm
                   loop_l   0x003540    program     static C:\MCC18\src\traditional\proc\p18F14K50.asm
                     main   0x002fc2    program     extern C:\GitRepository\stavebnice03\PIC\interface\main.c
                   memcpy   0x00331c    program     extern C:\MCC18\src\traditional\stdclib\memcpy.asm
                   memset   0x003372    program     extern C:\MCC18\src\traditional\stdclib\memset.asm
   mySetLineCodingHandler   0x002920    program     extern C:\GitRepository\stavebnice03\PIC\interface\usb_connector.c
              putUSBUSART   0x002574    program     extern C:\Microchip Solutions v2012-07-18\Microchip\USB\CDC Device Driver\usb_function_cdc.c
            putrsUSBUSART   0x002630    program     extern C:\Microchip Solutions v2012-07-18\Microchip\USB\CDC Device Driver\usb_function_cdc.c
             putsUSBUSART   0x0025a6    program     extern C:\Microchip Solutions v2012-07-18\Microchip\USB\CDC Device Driver\usb_function_cdc.c
                    sd000   0x003209    program     extern C:\GitRepository\stavebnice03\PIC\interface\usb_descriptors.c
                    sd001   0x00320d    program     extern C:\GitRepository\stavebnice03\PIC\interface\usb_descriptors.c
                    sd002   0x003241    program     extern C:\GitRepository\stavebnice03\PIC\interface\usb_descriptors.c
                     test   0x003298    program     static                          
            usbDataReaded   0x002f06    program     extern C:\GitRepository\stavebnice03\PIC\interface\main.c
               zero_block   0x003536    program     static C:\MCC18\src\traditional\proc\p18F14K50.asm
                   ADCON0   0x000fc2       data     extern C:\MCC18\src\traditional\proc\p18F14K50.asm
               ADCON0bits   0x000fc2       data     extern C:\MCC18\src\traditional\proc\p18F14K50.asm
                   ADCON1   0x000fc1       data     extern C:\MCC18\src\traditional\proc\p18F14K50.asm
               ADCON1bits   0x000fc1       data     extern C:\MCC18\src\traditional\proc\p18F14K50.asm
                   ADCON2   0x000fc0       data     extern C:\MCC18\src\traditional\proc\p18F14K50.asm
               ADCON2bits   0x000fc0       data     extern C:\MCC18\src\traditional\proc\p18F14K50.asm
                    ADRES   0x000fc3       data     extern C:\MCC18\src\traditional\proc\p18F14K50.asm
                   ADRESH   0x000fc4       data     extern C:\MCC18\src\traditional\proc\p18F14K50.asm
                   ADRESL   0x000fc3       data     extern C:\MCC18\src\traditional\proc\p18F14K50.asm
                    ANSEL   0x000f7e       data     extern C:\MCC18\src\traditional\proc\p18F14K50.asm
                   ANSELH   0x000f7f       data     extern C:\MCC18\src\traditional\proc\p18F14K50.asm
               ANSELHbits   0x000f7f       data     extern C:\MCC18\src\traditional\proc\p18F14K50.asm
                ANSELbits   0x000f7e       data     extern C:\MCC18\src\traditional\proc\p18F14K50.asm
                  BAUDCON   0x000fb8       data     extern C:\MCC18\src\traditional\proc\p18F14K50.asm
              BAUDCONbits   0x000fb8       data     extern C:\MCC18\src\traditional\proc\p18F14K50.asm
                  BAUDCTL   0x000fb8       data     extern C:\MCC18\src\traditional\proc\p18F14K50.asm
              BAUDCTLbits   0x000fb8       data     extern C:\MCC18\src\traditional\proc\p18F14K50.asm
                      BDT   0x000200       data     extern C:\Microchip Solutions v2012-07-18\Microchip\USB\usb_device.c
                      BSR   0x000fe0       data     extern C:\MCC18\src\traditional\proc\p18F14K50.asm
              BaudRateGen   0x0000ec       data     extern C:\Microchip Solutions v2012-07-18\Microchip\USB\CDC Device Driver\usb_function_cdc.c
       BothEP0OutUOWNsSet   0x0000d0       data     extern C:\Microchip Solutions v2012-07-18\Microchip\USB\usb_device.c
                  CCP1CON   0x000fbd       data     extern C:\MCC18\src\traditional\proc\p18F14K50.asm
              CCP1CONbits   0x000fbd       data     extern C:\MCC18\src\traditional\proc\p18F14K50.asm
                    CCPR1   0x000fbe       data     extern C:\MCC18\src\traditional\proc\p18F14K50.asm
                   CCPR1H   0x000fbf       data     extern C:\MCC18\src\traditional\proc\p18F14K50.asm
                   CCPR1L   0x000fbe       data     extern C:\MCC18\src\traditional\proc\p18F14K50.asm
          CDCDataInHandle   0x0000e9       data     extern C:\Microchip Solutions v2012-07-18\Microchip\USB\CDC Device Driver\usb_function_cdc.c
         CDCDataOutHandle   0x0000e7       data     extern C:\Microchip Solutions v2012-07-18\Microchip\USB\CDC Device Driver\usb_function_cdc.c
                  CM1CON0   0x000f6d       data     extern C:\MCC18\src\traditional\proc\p18F14K50.asm
              CM1CON0bits   0x000f6d       data     extern C:\MCC18\src\traditional\proc\p18F14K50.asm
                  CM2CON0   0x000f6b       data     extern C:\MCC18\src\traditional\proc\p18F14K50.asm
              CM2CON0bits   0x000f6b       data     extern C:\MCC18\src\traditional\proc\p18F14K50.asm
                  CM2CON1   0x000f6c       data     extern C:\MCC18\src\traditional\proc\p18F14K50.asm
              CM2CON1bits   0x000f6c       data     extern C:\MCC18\src\traditional\proc\p18F14K50.asm
              CtrlTrfData   0x000248       data     extern C:\Microchip Solutions v2012-07-18\Microchip\USB\usb_device.c
                     DDRA   0x000f92       data     extern C:\MCC18\src\traditional\proc\p18F14K50.asm
                 DDRAbits   0x000f92       data     extern C:\MCC18\src\traditional\proc\p18F14K50.asm
                     DDRB   0x000f93       data     extern C:\MCC18\src\traditional\proc\p18F14K50.asm
                 DDRBbits   0x000f93       data     extern C:\MCC18\src\traditional\proc\p18F14K50.asm
                     DDRC   0x000f94       data     extern C:\MCC18\src\traditional\proc\p18F14K50.asm
                 DDRCbits   0x000f94       data     extern C:\MCC18\src\traditional\proc\p18F14K50.asm
                  ECCP1AS   0x000fb6       data     extern C:\MCC18\src\traditional\proc\p18F14K50.asm
              ECCP1ASbits   0x000fb6       data     extern C:\MCC18\src\traditional\proc\p18F14K50.asm
                    EEADR   0x000fa9       data     extern C:\MCC18\src\traditional\proc\p18F14K50.asm
                EEADRbits   0x000fa9       data     extern C:\MCC18\src\traditional\proc\p18F14K50.asm
                   EECON1   0x000fa6       data     extern C:\MCC18\src\traditional\proc\p18F14K50.asm
               EECON1bits   0x000fa6       data     extern C:\MCC18\src\traditional\proc\p18F14K50.asm
                   EECON2   0x000fa7       data     extern C:\MCC18\src\traditional\proc\p18F14K50.asm
                   EEDATA   0x000fa8       data     extern C:\MCC18\src\traditional\proc\p18F14K50.asm
                     FSR0   0x000fe9       data     extern C:\MCC18\src\traditional\proc\p18F14K50.asm
                    FSR0H   0x000fea       data     extern C:\MCC18\src\traditional\proc\p18F14K50.asm
                    FSR0L   0x000fe9       data     extern C:\MCC18\src\traditional\proc\p18F14K50.asm
                     FSR1   0x000fe1       data     extern C:\MCC18\src\traditional\proc\p18F14K50.asm
                    FSR1H   0x000fe2       data     extern C:\MCC18\src\traditional\proc\p18F14K50.asm
                    FSR1L   0x000fe1       data     extern C:\MCC18\src\traditional\proc\p18F14K50.asm
                     FSR2   0x000fd9       data     extern C:\MCC18\src\traditional\proc\p18F14K50.asm
                    FSR2H   0x000fda       data     extern C:\MCC18\src\traditional\proc\p18F14K50.asm
                    FSR2L   0x000fd9       data     extern C:\MCC18\src\traditional\proc\p18F14K50.asm
                    INDF0   0x000fef       data     extern C:\MCC18\src\traditional\proc\p18F14K50.asm
                    INDF1   0x000fe7       data     extern C:\MCC18\src\traditional\proc\p18F14K50.asm
                    INDF2   0x000fdf       data     extern C:\MCC18\src\traditional\proc\p18F14K50.asm
                   INTCON   0x000ff2       data     extern C:\MCC18\src\traditional\proc\p18F14K50.asm
                  INTCON2   0x000ff1       data     extern C:\MCC18\src\traditional\proc\p18F14K50.asm
              INTCON2bits   0x000ff1       data     extern C:\MCC18\src\traditional\proc\p18F14K50.asm
                  INTCON3   0x000ff0       data     extern C:\MCC18\src\traditional\proc\p18F14K50.asm
              INTCON3bits   0x000ff0       data     extern C:\MCC18\src\traditional\proc\p18F14K50.asm
               INTCONbits   0x000ff2       data     extern C:\MCC18\src\traditional\proc\p18F14K50.asm
                     IOCA   0x000f79       data     extern C:\MCC18\src\traditional\proc\p18F14K50.asm
                 IOCAbits   0x000f79       data     extern C:\MCC18\src\traditional\proc\p18F14K50.asm
                     IOCB   0x000f7a       data     extern C:\MCC18\src\traditional\proc\p18F14K50.asm
                 IOCBbits   0x000f7a       data     extern C:\MCC18\src\traditional\proc\p18F14K50.asm
                     IPR1   0x000f9f       data     extern C:\MCC18\src\traditional\proc\p18F14K50.asm
                 IPR1bits   0x000f9f       data     extern C:\MCC18\src\traditional\proc\p18F14K50.asm
                     IPR2   0x000fa2       data     extern C:\MCC18\src\traditional\proc\p18F14K50.asm
                 IPR2bits   0x000fa2       data     extern C:\MCC18\src\traditional\proc\p18F14K50.asm
                     LATA   0x000f89       data     extern C:\MCC18\src\traditional\proc\p18F14K50.asm
                 LATAbits   0x000f89       data     extern C:\MCC18\src\traditional\proc\p18F14K50.asm
                     LATB   0x000f8a       data     extern C:\MCC18\src\traditional\proc\p18F14K50.asm
                 LATBbits   0x000f8a       data     extern C:\MCC18\src\traditional\proc\p18F14K50.asm
                     LATC   0x000f8b       data     extern C:\MCC18\src\traditional\proc\p18F14K50.asm
                 LATCbits   0x000f8b       data     extern C:\MCC18\src\traditional\proc\p18F14K50.asm
               NextUSBOut   0x0000a2       data     extern C:\GitRepository\stavebnice03\PIC\interface\usb_connector.c
                   OSCCON   0x000fd3       data     extern C:\MCC18\src\traditional\proc\p18F14K50.asm
                  OSCCON2   0x000fd2       data     extern C:\MCC18\src\traditional\proc\p18F14K50.asm
              OSCCON2bits   0x000fd2       data     extern C:\MCC18\src\traditional\proc\p18F14K50.asm
               OSCCONbits   0x000fd3       data     extern C:\MCC18\src\traditional\proc\p18F14K50.asm
                  OSCTUNE   0x000f9b       data     extern C:\MCC18\src\traditional\proc\p18F14K50.asm
              OSCTUNEbits   0x000f9b       data     extern C:\MCC18\src\traditional\proc\p18F14K50.asm
                       PC   0x000ff9       data     extern C:\MCC18\src\traditional\proc\p18F14K50.asm
                      PCL   0x000ff9       data     extern C:\MCC18\src\traditional\proc\p18F14K50.asm
                   PCLATH   0x000ffa       data     extern C:\MCC18\src\traditional\proc\p18F14K50.asm
                   PCLATU   0x000ffb       data     extern C:\MCC18\src\traditional\proc\p18F14K50.asm
                     PIE1   0x000f9d       data     extern C:\MCC18\src\traditional\proc\p18F14K50.asm
                 PIE1bits   0x000f9d       data     extern C:\MCC18\src\traditional\proc\p18F14K50.asm
                     PIE2   0x000fa0       data     extern C:\MCC18\src\traditional\proc\p18F14K50.asm
                 PIE2bits   0x000fa0       data     extern C:\MCC18\src\traditional\proc\p18F14K50.asm
                     PIR1   0x000f9e       data     extern C:\MCC18\src\traditional\proc\p18F14K50.asm
                 PIR1bits   0x000f9e       data     extern C:\MCC18\src\traditional\proc\p18F14K50.asm
                     PIR2   0x000fa1       data     extern C:\MCC18\src\traditional\proc\p18F14K50.asm
                 PIR2bits   0x000fa1       data     extern C:\MCC18\src\traditional\proc\p18F14K50.asm
                   PLUSW0   0x000feb       data     extern C:\MCC18\src\traditional\proc\p18F14K50.asm
                   PLUSW1   0x000fe3       data     extern C:\MCC18\src\traditional\proc\p18F14K50.asm
                   PLUSW2   0x000fdb       data     extern C:\MCC18\src\traditional\proc\p18F14K50.asm
                    PORTA   0x000f80       data     extern C:\MCC18\src\traditional\proc\p18F14K50.asm
                PORTAbits   0x000f80       data     extern C:\MCC18\src\traditional\proc\p18F14K50.asm
                    PORTB   0x000f81       data     extern C:\MCC18\src\traditional\proc\p18F14K50.asm
                PORTBbits   0x000f81       data     extern C:\MCC18\src\traditional\proc\p18F14K50.asm
                    PORTC   0x000f82       data     extern C:\MCC18\src\traditional\proc\p18F14K50.asm
                PORTCbits   0x000f82       data     extern C:\MCC18\src\traditional\proc\p18F14K50.asm
                 POSTDEC0   0x000fed       data     extern C:\MCC18\src\traditional\proc\p18F14K50.asm
                 POSTDEC1   0x000fe5       data     extern C:\MCC18\src\traditional\proc\p18F14K50.asm
                 POSTDEC2   0x000fdd       data     extern C:\MCC18\src\traditional\proc\p18F14K50.asm
                 POSTINC0   0x000fee       data     extern C:\MCC18\src\traditional\proc\p18F14K50.asm
                 POSTINC1   0x000fe6       data     extern C:\MCC18\src\traditional\proc\p18F14K50.asm
                 POSTINC2   0x000fde       data     extern C:\MCC18\src\traditional\proc\p18F14K50.asm
                      PR2   0x000fcb       data     extern C:\MCC18\src\traditional\proc\p18F14K50.asm
                  PREINC0   0x000fec       data     extern C:\MCC18\src\traditional\proc\p18F14K50.asm
                  PREINC1   0x000fe4       data     extern C:\MCC18\src\traditional\proc\p18F14K50.asm
                  PREINC2   0x000fdc       data     extern C:\MCC18\src\traditional\proc\p18F14K50.asm
                     PROD   0x000ff3       data     extern C:\MCC18\src\traditional\proc\p18F14K50.asm
                    PRODH   0x000ff4       data     extern C:\MCC18\src\traditional\proc\p18F14K50.asm
                    PRODL   0x000ff3       data     extern C:\MCC18\src\traditional\proc\p18F14K50.asm
                  PSTRCON   0x000fb9       data     extern C:\MCC18\src\traditional\proc\p18F14K50.asm
              PSTRCONbits   0x000fb9       data     extern C:\MCC18\src\traditional\proc\p18F14K50.asm
                  PWM1CON   0x000fb7       data     extern C:\MCC18\src\traditional\proc\p18F14K50.asm
              PWM1CONbits   0x000fb7       data     extern C:\MCC18\src\traditional\proc\p18F14K50.asm
                     RCON   0x000fd0       data     extern C:\MCC18\src\traditional\proc\p18F14K50.asm
                 RCONbits   0x000fd0       data     extern C:\MCC18\src\traditional\proc\p18F14K50.asm
                    RCREG   0x000fae       data     extern C:\MCC18\src\traditional\proc\p18F14K50.asm
                    RCSTA   0x000fab       data     extern C:\MCC18\src\traditional\proc\p18F14K50.asm
                RCSTAbits   0x000fab       data     extern C:\MCC18\src\traditional\proc\p18F14K50.asm
                  REFCON0   0x000fba       data     extern C:\MCC18\src\traditional\proc\p18F14K50.asm
              REFCON0bits   0x000fba       data     extern C:\MCC18\src\traditional\proc\p18F14K50.asm
                  REFCON1   0x000fbb       data     extern C:\MCC18\src\traditional\proc\p18F14K50.asm
              REFCON1bits   0x000fbb       data     extern C:\MCC18\src\traditional\proc\p18F14K50.asm
                  REFCON2   0x000fbc       data     extern C:\MCC18\src\traditional\proc\p18F14K50.asm
              REFCON2bits   0x000fbc       data     extern C:\MCC18\src\traditional\proc\p18F14K50.asm
             RemoteWakeup   0x0000cc       data     extern C:\Microchip Solutions v2012-07-18\Microchip\USB\usb_device.c
                     SIGN   0x00000e       data     extern C:\MCC18\src\traditional\math\cmath18.asm
                   SLRCON   0x000f76       data     extern C:\MCC18\src\traditional\proc\p18F14K50.asm
               SLRCONbits   0x000f76       data     extern C:\MCC18\src\traditional\proc\p18F14K50.asm
                    SPBRG   0x000faf       data     extern C:\MCC18\src\traditional\proc\p18F14K50.asm
                   SPBRGH   0x000fb0       data     extern C:\MCC18\src\traditional\proc\p18F14K50.asm
                   SRCON0   0x000f68       data     extern C:\MCC18\src\traditional\proc\p18F14K50.asm
               SRCON0bits   0x000f68       data     extern C:\MCC18\src\traditional\proc\p18F14K50.asm
                   SRCON1   0x000f69       data     extern C:\MCC18\src\traditional\proc\p18F14K50.asm
               SRCON1bits   0x000f69       data     extern C:\MCC18\src\traditional\proc\p18F14K50.asm
                   SSPADD   0x000fc8       data     extern C:\MCC18\src\traditional\proc\p18F14K50.asm
                   SSPBUF   0x000fc9       data     extern C:\MCC18\src\traditional\proc\p18F14K50.asm
                  SSPCON1   0x000fc6       data     extern C:\MCC18\src\traditional\proc\p18F14K50.asm
              SSPCON1bits   0x000fc6       data     extern C:\MCC18\src\traditional\proc\p18F14K50.asm
                  SSPCON2   0x000fc5       data     extern C:\MCC18\src\traditional\proc\p18F14K50.asm
              SSPCON2bits   0x000fc5       data     extern C:\MCC18\src\traditional\proc\p18F14K50.asm
                   SSPMSK   0x000f6f       data     extern C:\MCC18\src\traditional\proc\p18F14K50.asm
               SSPMSKbits   0x000f6f       data     extern C:\MCC18\src\traditional\proc\p18F14K50.asm
                  SSPSTAT   0x000fc7       data     extern C:\MCC18\src\traditional\proc\p18F14K50.asm
              SSPSTATbits   0x000fc7       data     extern C:\MCC18\src\traditional\proc\p18F14K50.asm
                   STATUS   0x000fd8       data     extern C:\MCC18\src\traditional\proc\p18F14K50.asm
               STATUSbits   0x000fd8       data     extern C:\MCC18\src\traditional\proc\p18F14K50.asm
                   STKPTR   0x000ffc       data     extern C:\MCC18\src\traditional\proc\p18F14K50.asm
               STKPTRbits   0x000ffc       data     extern C:\MCC18\src\traditional\proc\p18F14K50.asm
                 SetupPkt   0x000240       data     extern C:\Microchip Solutions v2012-07-18\Microchip\USB\usb_device.c
                    T0CON   0x000fd5       data     extern C:\MCC18\src\traditional\proc\p18F14K50.asm
                T0CONbits   0x000fd5       data     extern C:\MCC18\src\traditional\proc\p18F14K50.asm
                    T1CON   0x000fcd       data     extern C:\MCC18\src\traditional\proc\p18F14K50.asm
                T1CONbits   0x000fcd       data     extern C:\MCC18\src\traditional\proc\p18F14K50.asm
                    T2CON   0x000fca       data     extern C:\MCC18\src\traditional\proc\p18F14K50.asm
                T2CONbits   0x000fca       data     extern C:\MCC18\src\traditional\proc\p18F14K50.asm
                    T3CON   0x000fb1       data     extern C:\MCC18\src\traditional\proc\p18F14K50.asm
                T3CONbits   0x000fb1       data     extern C:\MCC18\src\traditional\proc\p18F14K50.asm
                   TABLAT   0x000ff5       data     extern C:\MCC18\src\traditional\proc\p18F14K50.asm
                   TBLPTR   0x000ff6       data     extern C:\MCC18\src\traditional\proc\p18F14K50.asm
                  TBLPTRH   0x000ff7       data     extern C:\MCC18\src\traditional\proc\p18F14K50.asm
                  TBLPTRL   0x000ff6       data     extern C:\MCC18\src\traditional\proc\p18F14K50.asm
                  TBLPTRU   0x000ff8       data     extern C:\MCC18\src\traditional\proc\p18F14K50.asm
                    TMR0H   0x000fd7       data     extern C:\MCC18\src\traditional\proc\p18F14K50.asm
                    TMR0L   0x000fd6       data     extern C:\MCC18\src\traditional\proc\p18F14K50.asm
                    TMR1H   0x000fcf       data     extern C:\MCC18\src\traditional\proc\p18F14K50.asm
                    TMR1L   0x000fce       data     extern C:\MCC18\src\traditional\proc\p18F14K50.asm
                     TMR2   0x000fcc       data     extern C:\MCC18\src\traditional\proc\p18F14K50.asm
                    TMR3H   0x000fb3       data     extern C:\MCC18\src\traditional\proc\p18F14K50.asm
                    TMR3L   0x000fb2       data     extern C:\MCC18\src\traditional\proc\p18F14K50.asm
                      TOS   0x000ffd       data     extern C:\MCC18\src\traditional\proc\p18F14K50.asm
                     TOSH   0x000ffe       data     extern C:\MCC18\src\traditional\proc\p18F14K50.asm
                     TOSL   0x000ffd       data     extern C:\MCC18\src\traditional\proc\p18F14K50.asm
                     TOSU   0x000fff       data     extern C:\MCC18\src\traditional\proc\p18F14K50.asm
                    TRISA   0x000f92       data     extern C:\MCC18\src\traditional\proc\p18F14K50.asm
                TRISAbits   0x000f92       data     extern C:\MCC18\src\traditional\proc\p18F14K50.asm
                    TRISB   0x000f93       data     extern C:\MCC18\src\traditional\proc\p18F14K50.asm
                TRISBbits   0x000f93       data     extern C:\MCC18\src\traditional\proc\p18F14K50.asm
                    TRISC   0x000f94       data     extern C:\MCC18\src\traditional\proc\p18F14K50.asm
                TRISCbits   0x000f94       data     extern C:\MCC18\src\traditional\proc\p18F14K50.asm
                    TXREG   0x000fad       data     extern C:\MCC18\src\traditional\proc\p18F14K50.asm
                    TXSTA   0x000fac       data     extern C:\MCC18\src\traditional\proc\p18F14K50.asm
                TXSTAbits   0x000fac       data     extern C:\MCC18\src\traditional\proc\p18F14K50.asm
                    UADDR   0x000f5c       data     extern C:\MCC18\src\traditional\proc\p18F14K50.asm
                UADDRbits   0x000f5c       data     extern C:\MCC18\src\traditional\proc\p18F14K50.asm
                     UCFG   0x000f61       data     extern C:\MCC18\src\traditional\proc\p18F14K50.asm
                 UCFGbits   0x000f61       data     extern C:\MCC18\src\traditional\proc\p18F14K50.asm
                     UCON   0x000f64       data     extern C:\MCC18\src\traditional\proc\p18F14K50.asm
                 UCONbits   0x000f64       data     extern C:\MCC18\src\traditional\proc\p18F14K50.asm
                     UEIE   0x000f5b       data     extern C:\MCC18\src\traditional\proc\p18F14K50.asm
                 UEIEbits   0x000f5b       data     extern C:\MCC18\src\traditional\proc\p18F14K50.asm
                     UEIR   0x000f5f       data     extern C:\MCC18\src\traditional\proc\p18F14K50.asm
                 UEIRbits   0x000f5f       data     extern C:\MCC18\src\traditional\proc\p18F14K50.asm
                     UEP0   0x000f53       data     extern C:\MCC18\src\traditional\proc\p18F14K50.asm
                 UEP0bits   0x000f53       data     extern C:\MCC18\src\traditional\proc\p18F14K50.asm
                     UEP1   0x000f54       data     extern C:\MCC18\src\traditional\proc\p18F14K50.asm
                 UEP1bits   0x000f54       data     extern C:\MCC18\src\traditional\proc\p18F14K50.asm
                     UEP2   0x000f55       data     extern C:\MCC18\src\traditional\proc\p18F14K50.asm
                 UEP2bits   0x000f55       data     extern C:\MCC18\src\traditional\proc\p18F14K50.asm
                     UEP3   0x000f56       data     extern C:\MCC18\src\traditional\proc\p18F14K50.asm
                 UEP3bits   0x000f56       data     extern C:\MCC18\src\traditional\proc\p18F14K50.asm
                     UEP4   0x000f57       data     extern C:\MCC18\src\traditional\proc\p18F14K50.asm
                 UEP4bits   0x000f57       data     extern C:\MCC18\src\traditional\proc\p18F14K50.asm
                     UEP5   0x000f58       data     extern C:\MCC18\src\traditional\proc\p18F14K50.asm
                 UEP5bits   0x000f58       data     extern C:\MCC18\src\traditional\proc\p18F14K50.asm
                     UEP6   0x000f59       data     extern C:\MCC18\src\traditional\proc\p18F14K50.asm
                 UEP6bits   0x000f59       data     extern C:\MCC18\src\traditional\proc\p18F14K50.asm
                     UEP7   0x000f5a       data     extern C:\MCC18\src\traditional\proc\p18F14K50.asm
                 UEP7bits   0x000f5a       data     extern C:\MCC18\src\traditional\proc\p18F14K50.asm
                    UFRMH   0x000f5e       data     extern C:\MCC18\src\traditional\proc\p18F14K50.asm
                UFRMHbits   0x000f5e       data     extern C:\MCC18\src\traditional\proc\p18F14K50.asm
                    UFRML   0x000f5d       data     extern C:\MCC18\src\traditional\proc\p18F14K50.asm
                UFRMLbits   0x000f5d       data     extern C:\MCC18\src\traditional\proc\p18F14K50.asm
                      UIE   0x000f60       data     extern C:\MCC18\src\traditional\proc\p18F14K50.asm
                  UIEbits   0x000f60       data     extern C:\MCC18\src\traditional\proc\p18F14K50.asm
                      UIR   0x000f62       data     extern C:\MCC18\src\traditional\proc\p18F14K50.asm
                  UIRbits   0x000f62       data     extern C:\MCC18\src\traditional\proc\p18F14K50.asm
   USBActiveConfiguration   0x0000a6       data     extern C:\Microchip Solutions v2012-07-18\Microchip\USB\usb_device.c
    USBAlternateInterface   0x0000a7       data     extern C:\Microchip Solutions v2012-07-18\Microchip\USB\usb_device.c
        USBBusIsSuspended   0x0000cd       data     extern C:\Microchip Solutions v2012-07-18\Microchip\USB\usb_device.c
USBDeferINDataStagePackets   0x0000dd       data     extern C:\Microchip Solutions v2012-07-18\Microchip\USB\usb_device.c
USBDeferOUTDataStagePackets   0x0000de       data     extern C:\Microchip Solutions v2012-07-18\Microchip\USB\usb_device.c
USBDeferStatusStagePacket   0x0000da       data     extern C:\Microchip Solutions v2012-07-18\Microchip\USB\usb_device.c
           USBDeviceState   0x0000a5       data     extern C:\Microchip Solutions v2012-07-18\Microchip\USB\usb_device.c
USBStatusStageEnabledFlag1   0x0000db       data     extern C:\Microchip Solutions v2012-07-18\Microchip\USB\usb_device.c
USBStatusStageEnabledFlag2   0x0000dc       data     extern C:\Microchip Solutions v2012-07-18\Microchip\USB\usb_device.c
USBStatusStageTimeoutCounter   0x0000d9       data     extern C:\Microchip Solutions v2012-07-18\Microchip\USB\usb_device.c
                    USTAT   0x000f63       data     extern C:\MCC18\src\traditional\proc\p18F14K50.asm
                USTATbits   0x000f63       data     extern C:\MCC18\src\traditional\proc\p18F14K50.asm
                USTATcopy   0x0000ce       data     extern C:\Microchip Solutions v2012-07-18\Microchip\USB\usb_device.c
                 VREFCON0   0x000fba       data     extern C:\MCC18\src\traditional\proc\p18F14K50.asm
             VREFCON0bits   0x000fba       data     extern C:\MCC18\src\traditional\proc\p18F14K50.asm
                 VREFCON1   0x000fbb       data     extern C:\MCC18\src\traditional\proc\p18F14K50.asm
             VREFCON1bits   0x000fbb       data     extern C:\MCC18\src\traditional\proc\p18F14K50.asm
                 VREFCON2   0x000fbc       data     extern C:\MCC18\src\traditional\proc\p18F14K50.asm
             VREFCON2bits   0x000fbc       data     extern C:\MCC18\src\traditional\proc\p18F14K50.asm
                        W   0x000fe8       data     extern C:\MCC18\src\traditional\proc\p18F14K50.asm
                   WDTCON   0x000fd1       data     extern C:\MCC18\src\traditional\proc\p18F14K50.asm
               WDTCONbits   0x000fd1       data     extern C:\MCC18\src\traditional\proc\p18F14K50.asm
                     WPUA   0x000f77       data     extern C:\MCC18\src\traditional\proc\p18F14K50.asm
                 WPUAbits   0x000f77       data     extern C:\MCC18\src\traditional\proc\p18F14K50.asm
                     WPUB   0x000f78       data     extern C:\MCC18\src\traditional\proc\p18F14K50.asm
                 WPUBbits   0x000f78       data     extern C:\MCC18\src\traditional\proc\p18F14K50.asm
                     WREG   0x000fe8       data     extern C:\MCC18\src\traditional\proc\p18F14K50.asm
                 __AARGB0   0x000007       data     extern C:\MCC18\src\traditional\math\aarg.asm
                 __AARGB1   0x000006       data     extern C:\MCC18\src\traditional\math\aarg.asm
                 __AARGB2   0x000005       data     extern C:\MCC18\src\traditional\math\aarg.asm
                 __AARGB3   0x000004       data     extern C:\MCC18\src\traditional\math\aarg.asm
                 __AARGB4   0x000003       data     extern C:\MCC18\src\traditional\math\aarg.asm
                 __AARGB5   0x000002       data     extern C:\MCC18\src\traditional\math\aarg.asm
                 __AARGB6   0x000001       data     extern C:\MCC18\src\traditional\math\aarg.asm
                 __AARGB7   0x000000       data     extern C:\MCC18\src\traditional\math\aarg.asm
                   __AEXP   0x000008       data     extern C:\MCC18\src\traditional\math\aarg.asm
                 __BARGB0   0x00000c       data     extern C:\MCC18\src\traditional\math\barg.asm
                 __BARGB1   0x00000b       data     extern C:\MCC18\src\traditional\math\barg.asm
                 __BARGB2   0x00000a       data     extern C:\MCC18\src\traditional\math\barg.asm
                 __BARGB3   0x000009       data     extern C:\MCC18\src\traditional\math\barg.asm
                   __BEXP   0x00000d       data     extern C:\MCC18\src\traditional\math\barg.asm
                __FPFLAGS   0x00000f       data     extern C:\MCC18\src\traditional\math\cmath18.asm
            __FPFLAGSbits   0x00000f       data     extern C:\MCC18\src\traditional\math\cmath18.asm
                  __REMB0   0x000003       data     extern C:\MCC18\src\traditional\math\aarg.asm
                  __REMB1   0x000002       data     extern C:\MCC18\src\traditional\math\aarg.asm
                  __REMB2   0x000001       data     extern C:\MCC18\src\traditional\math\aarg.asm
                  __REMB3   0x000000       data     extern C:\MCC18\src\traditional\math\aarg.asm
                  __tmp_0   0x000010       data     static C:\MCC18\src\pmc_common\EEP\write_B.c
                  __tmp_0   0x000010       data     static C:\MCC18\src\pmc_common\EEP\read_B.c
                  __tmp_0   0x000010       data     static C:\Microchip Solutions v2012-07-18\Microchip\USB\usb_device.c
                  __tmp_0   0x000010       data     static C:\Microchip Solutions v2012-07-18\Microchip\USB\CDC Device Driver\usb_function_cdc.c
                  __tmp_0   0x000010       data     static C:\GitRepository\stavebnice03\PIC\interface\i2c_connector.c
                  __tmp_0   0x000010       data     static C:\GitRepository\stavebnice03\PIC\interface\usb_connector.c
                  __tmp_0   0x000010       data     static C:\GitRepository\stavebnice03\PIC\interface\main.c
              cdc_data_rx   0x000258       data     extern C:\Microchip Solutions v2012-07-18\Microchip\USB\CDC Device Driver\usb_function_cdc.c
              cdc_data_tx   0x000298       data     extern C:\Microchip Solutions v2012-07-18\Microchip\USB\CDC Device Driver\usb_function_cdc.c
             cdc_mem_type   0x0000e6       data     extern C:\Microchip Solutions v2012-07-18\Microchip\USB\CDC Device Driver\usb_function_cdc.c
               cdc_notice   0x000250       data     extern C:\Microchip Solutions v2012-07-18\Microchip\USB\CDC Device Driver\usb_function_cdc.c
               cdc_rx_len   0x0000df       data     extern C:\Microchip Solutions v2012-07-18\Microchip\USB\CDC Device Driver\usb_function_cdc.c
            cdc_trf_state   0x0000e0       data     extern C:\Microchip Solutions v2012-07-18\Microchip\USB\CDC Device Driver\usb_function_cdc.c
               cdc_tx_len   0x0000e5       data     extern C:\Microchip Solutions v2012-07-18\Microchip\USB\CDC Device Driver\usb_function_cdc.c
     controlTransferState   0x0000bd       data     extern C:\Microchip Solutions v2012-07-18\Microchip\USB\usb_device.c
    control_signal_bitmap   0x0000eb       data     extern C:\Microchip Solutions v2012-07-18\Microchip\USB\CDC Device Driver\usb_function_cdc.c
                curr_byte   0x000143       data     static C:\MCC18\src\traditional\startup\c018i.c
               curr_entry   0x000145       data     static C:\MCC18\src\traditional\startup\c018i.c
                 data_ptr   0x000147       data     static C:\MCC18\src\traditional\startup\c018i.c
              delay_count   0x0000a3       data     static C:\GitRepository\stavebnice03\PIC\interface\usb_connector.c
dummy_encapsulated_cmd_response   0x0000f0       data     extern C:\Microchip Solutions v2012-07-18\Microchip\USB\CDC Device Driver\usb_function_cdc.c
          endpoint_number   0x0000cf       data     extern C:\Microchip Solutions v2012-07-18\Microchip\USB\usb_device.c
               ep_data_in   0x0000d1       data     extern C:\Microchip Solutions v2012-07-18\Microchip\USB\usb_device.c
              ep_data_out   0x0000d5       data     extern C:\Microchip Solutions v2012-07-18\Microchip\USB\usb_device.c
                 g_buffer   0x000060       data     extern C:\GitRepository\stavebnice03\PIC\interface\usb_connector.c
             g_bufferHead   0x0000a0       data     extern C:\GitRepository\stavebnice03\PIC\interface\usb_connector.c
                  g_state   0x00014f       data     extern C:\GitRepository\stavebnice03\PIC\interface\main.c
                  inPipes   0x0000be       data     extern C:\Microchip Solutions v2012-07-18\Microchip\USB\usb_device.c
              line_coding   0x0002d8       data     extern C:\Microchip Solutions v2012-07-18\Microchip\USB\CDC Device Driver\usb_function_cdc.c
                 outPipes   0x0000c3       data     extern C:\Microchip Solutions v2012-07-18\Microchip\USB\usb_device.c
               out_buffer   0x0000f8       data     extern C:\GitRepository\stavebnice03\PIC\interface\main.c
   pBDTEntryEP0OutCurrent   0x0000a8       data     extern C:\Microchip Solutions v2012-07-18\Microchip\USB\usb_device.c
      pBDTEntryEP0OutNext   0x0000aa       data     extern C:\Microchip Solutions v2012-07-18\Microchip\USB\usb_device.c
              pBDTEntryIn   0x0000b4       data     extern C:\Microchip Solutions v2012-07-18\Microchip\USB\usb_device.c
             pBDTEntryOut   0x0000ac       data     extern C:\Microchip Solutions v2012-07-18\Microchip\USB\usb_device.c
                  pCDCDst   0x0000e3       data     extern C:\Microchip Solutions v2012-07-18\Microchip\USB\CDC Device Driver\usb_function_cdc.c
                  pCDCSrc   0x0000e1       data     extern C:\Microchip Solutions v2012-07-18\Microchip\USB\CDC Device Driver\usb_function_cdc.c
                     pDst   0x0000ca       data     extern C:\Microchip Solutions v2012-07-18\Microchip\USB\usb_device.c
                     prom   0x000140       data     static C:\MCC18\src\traditional\startup\c018i.c
               protocolId   0x00014a       data     extern C:\GitRepository\stavebnice03\PIC\interface\main.c
        shortPacketStatus   0x0000bc       data     extern C:\Microchip Solutions v2012-07-18\Microchip\USB\usb_device.c



                              Symbols - Sorted by Address
                     Name    Address   Location    Storage File                     
                ---------  ---------  ---------  --------- ---------                
                   _entry   0x000000    program     extern C:\MCC18\src\traditional\startup\c018i.c
       ___return_lbl00000   0x000004    program     static                          
                 High_ISR   0x000008    program     extern C:\GitRepository\stavebnice03\PIC\interface\usb_connector.c
       ___return_lbl00003   0x00000c    program     static                          
                  Low_ISR   0x000018    program     extern C:\GitRepository\stavebnice03\PIC\interface\usb_connector.c
       ___return_lbl00004   0x00001c    program     static                          
                   _reset   0x001000    program     extern C:\GitRepository\stavebnice03\PIC\interface\usb_connector.c
       ___return_lbl00000   0x001004    program     static                          
                   __init   0x001006    program     extern C:\MCC18\src\traditional\stdclib\__init.c
        Remapped_High_ISR   0x001008    program     extern C:\GitRepository\stavebnice03\PIC\interface\usb_connector.c
       ___return_lbl00001   0x00100c    program     static                          
                 Busy_eep   0x00100e    program     extern C:\MCC18\src\pmc_common\EEP\busy_eep.c
         Remapped_Low_ISR   0x001018    program     extern C:\GitRepository\stavebnice03\PIC\interface\usb_connector.c
       ___return_lbl00002   0x00101c    program     static                          
            USBDeviceInit   0x00102c    program     extern C:\Microchip Solutions v2012-07-18\Microchip\USB\usb_device.c
           USBDeviceTasks   0x00114c    program     extern C:\Microchip Solutions v2012-07-18\Microchip\USB\usb_device.c
        USBEnableEndpoint   0x0012b0    program     extern C:\Microchip Solutions v2012-07-18\Microchip\USB\usb_device.c
     USBTransferOnePacket   0x00131e    program     extern C:\Microchip Solutions v2012-07-18\Microchip\USB\usb_device.c
         USBStallEndpoint   0x001424    program     extern C:\Microchip Solutions v2012-07-18\Microchip\USB\usb_device.c
              USBCancelIO   0x001504    program     extern C:\Microchip Solutions v2012-07-18\Microchip\USB\usb_device.c
          USBDeviceDetach   0x0015b4    program     extern C:\Microchip Solutions v2012-07-18\Microchip\USB\usb_device.c
          USBDeviceAttach   0x0015c0    program     extern C:\Microchip Solutions v2012-07-18\Microchip\USB\usb_device.c
USBCtrlEPAllowStatusStage   0x0015f0    program     extern C:\Microchip Solutions v2012-07-18\Microchip\USB\usb_device.c
  USBCtrlEPAllowDataStage   0x001692    program     extern C:\Microchip Solutions v2012-07-18\Microchip\USB\usb_device.c
     USBConfigureEndpoint   0x001712    program     static C:\Microchip Solutions v2012-07-18\Microchip\USB\usb_device.c
 USBCtrlEPServiceComplete   0x0017cc    program     static C:\Microchip Solutions v2012-07-18\Microchip\USB\usb_device.c
      USBCtrlTrfTxService   0x00188e    program     static C:\Microchip Solutions v2012-07-18\Microchip\USB\usb_device.c
      USBCtrlTrfRxService   0x001952    program     static C:\Microchip Solutions v2012-07-18\Microchip\USB\usb_device.c
      USBStdSetCfgHandler   0x001a92    program     static C:\Microchip Solutions v2012-07-18\Microchip\USB\usb_device.c
      USBStdGetDscHandler   0x001b78    program     static C:\Microchip Solutions v2012-07-18\Microchip\USB\usb_device.c
   USBStdGetStatusHandler   0x001c38    program     static C:\Microchip Solutions v2012-07-18\Microchip\USB\usb_device.c
          USBStallHandler   0x001d08    program     static C:\Microchip Solutions v2012-07-18\Microchip\USB\usb_device.c
               USBSuspend   0x001d3c    program     static C:\Microchip Solutions v2012-07-18\Microchip\USB\usb_device.c
       USBWakeFromSuspend   0x001d66    program     static C:\Microchip Solutions v2012-07-18\Microchip\USB\usb_device.c
         USBCtrlEPService   0x001d94    program     static C:\Microchip Solutions v2012-07-18\Microchip\USB\usb_device.c
   USBCtrlTrfSetupHandler   0x001e60    program     static C:\Microchip Solutions v2012-07-18\Microchip\USB\usb_device.c
     USBCtrlTrfOutHandler   0x001ebe    program     static C:\Microchip Solutions v2012-07-18\Microchip\USB\usb_device.c
      USBCtrlTrfInHandler   0x001f08    program     static C:\Microchip Solutions v2012-07-18\Microchip\USB\usb_device.c
       USBCheckStdRequest   0x001fc2    program     static C:\Microchip Solutions v2012-07-18\Microchip\USB\usb_device.c
  USBStdFeatureReqHandler   0x00208a    program     static C:\Microchip Solutions v2012-07-18\Microchip\USB\usb_device.c
       USBCheckCDCRequest   0x002318    program     extern C:\Microchip Solutions v2012-07-18\Microchip\USB\CDC Device Driver\usb_function_cdc.c
                CDCInitEP   0x0023be    program     extern C:\Microchip Solutions v2012-07-18\Microchip\USB\CDC Device Driver\usb_function_cdc.c
       USBCDCEventHandler   0x002426    program     extern C:\Microchip Solutions v2012-07-18\Microchip\USB\CDC Device Driver\usb_function_cdc.c
             getsUSBUSART   0x0024b2    program     extern C:\Microchip Solutions v2012-07-18\Microchip\USB\CDC Device Driver\usb_function_cdc.c
              putUSBUSART   0x002574    program     extern C:\Microchip Solutions v2012-07-18\Microchip\USB\CDC Device Driver\usb_function_cdc.c
             putsUSBUSART   0x0025a6    program     extern C:\Microchip Solutions v2012-07-18\Microchip\USB\CDC Device Driver\usb_function_cdc.c
            putrsUSBUSART   0x002630    program     extern C:\Microchip Solutions v2012-07-18\Microchip\USB\CDC Device Driver\usb_function_cdc.c
             CDCTxService   0x0026bc    program     extern C:\Microchip Solutions v2012-07-18\Microchip\USB\CDC Device Driver\usb_function_cdc.c
  YourHighPriorityISRCode   0x002810    program     extern C:\GitRepository\stavebnice03\PIC\interface\usb_connector.c
   YourLowPriorityISRCode   0x0028a6    program     extern C:\GitRepository\stavebnice03\PIC\interface\usb_connector.c
            InitializeUSB   0x0028cc    program     extern C:\GitRepository\stavebnice03\PIC\interface\usb_connector.c
                 UserInit   0x0028da    program     extern C:\GitRepository\stavebnice03\PIC\interface\usb_connector.c
   mySetLineCodingHandler   0x002920    program     extern C:\GitRepository\stavebnice03\PIC\interface\usb_connector.c
               ProcessUSB   0x0029d2    program     extern C:\GitRepository\stavebnice03\PIC\interface\usb_connector.c
             USBCBSuspend   0x002b5a    program     extern C:\GitRepository\stavebnice03\PIC\interface\usb_connector.c
     USBCBWakeFromSuspend   0x002b5c    program     extern C:\GitRepository\stavebnice03\PIC\interface\usb_connector.c
        USBCB_SOF_Handler   0x002b5e    program     extern C:\GitRepository\stavebnice03\PIC\interface\usb_connector.c
        USBCBErrorHandler   0x002b60    program     extern C:\GitRepository\stavebnice03\PIC\interface\usb_connector.c
       USBCBCheckOtherReq   0x002b62    program     extern C:\GitRepository\stavebnice03\PIC\interface\usb_connector.c
    USBCBStdSetDscHandler   0x002b66    program     extern C:\GitRepository\stavebnice03\PIC\interface\usb_connector.c
              USBCBInitEP   0x002b68    program     extern C:\GitRepository\stavebnice03\PIC\interface\usb_connector.c
          USBCBSendResume   0x002b6c    program     extern C:\GitRepository\stavebnice03\PIC\interface\usb_connector.c
USER_USB_CALLBACK_EVENT_HANDLER   0x002b88    program     extern C:\GitRepository\stavebnice03\PIC\interface\usb_connector.c
               __tmplbl_3   0x002ba4    program     static                          
               __tmplbl_4   0x002bb0    program     static                          
               __tmplbl_5   0x002bba    program     static                          
               __tmplbl_6   0x002bc4    program     static                          
               __tmplbl_7   0x002bce    program     static                          
               __tmplbl_8   0x002bd8    program     static                          
               __tmplbl_9   0x002be2    program     static                          
              __tmplbl_10   0x002bec    program     static                          
       ___case_1_lbl00036   0x002bf0    program     static                          
       ___case_2_lbl00037   0x002bf4    program     static                          
       ___case_3_lbl00038   0x002bf8    program     static                          
     ___case_115_lbl00039   0x002bfc    program     static                          
     ___case_117_lbl00040   0x002c00    program     static                          
     ___case_116_lbl00041   0x002c04    program     static                          
   ___case_32767_lbl00042   0x002c08    program     static                          
     ___case_114_lbl00043   0x002c0c    program     static                          
      ___default_lbl00044   0x002c10    program     static                          
   ___switchexit_lbl00035   0x002c12    program     static                          
       ___return_lbl00034   0x002c16    program     static                          
               PutUsbData   0x002c1e    program     extern C:\GitRepository\stavebnice03\PIC\interface\usb_connector.c
              IsConnected   0x002c4a    program     extern C:\GitRepository\stavebnice03\PIC\interface\main.c
                 Response   0x002cba    program     extern C:\GitRepository\stavebnice03\PIC\interface\main.c
             ResponseChar   0x002d20    program     extern C:\GitRepository\stavebnice03\PIC\interface\main.c
                 SetState   0x002d52    program     extern C:\GitRepository\stavebnice03\PIC\interface\main.c
            PutI2CCommand   0x002dce    program     extern C:\GitRepository\stavebnice03\PIC\interface\main.c
        SetDescendentMode   0x002e68    program     extern C:\GitRepository\stavebnice03\PIC\interface\main.c
        GetDescendentMode   0x002ec2    program     extern C:\GitRepository\stavebnice03\PIC\interface\main.c
                 GetState   0x002edc    program     extern C:\GitRepository\stavebnice03\PIC\interface\main.c
            usbDataReaded   0x002f06    program     extern C:\GitRepository\stavebnice03\PIC\interface\main.c
                     main   0x002fc2    program     extern C:\GitRepository\stavebnice03\PIC\interface\main.c
                  I2CInit   0x003018    program     extern C:\GitRepository\stavebnice03\PIC\interface\i2c_connector.c
                   PutI2C   0x003064    program     extern C:\GitRepository\stavebnice03\PIC\interface\i2c_connector.c
                   GetI2C   0x0030e4    program     extern C:\GitRepository\stavebnice03\PIC\interface\i2c_connector.c
             PutAndGetI2C   0x003164    program     extern C:\GitRepository\stavebnice03\PIC\interface\i2c_connector.c
               device_dsc   0x0031b4    program     extern C:\GitRepository\stavebnice03\PIC\interface\usb_descriptors.c
        configDescriptor1   0x0031c6    program     extern C:\GitRepository\stavebnice03\PIC\interface\usb_descriptors.c
                    sd000   0x003209    program     extern C:\GitRepository\stavebnice03\PIC\interface\usb_descriptors.c
                    sd001   0x00320d    program     extern C:\GitRepository\stavebnice03\PIC\interface\usb_descriptors.c
                    sd002   0x003241    program     extern C:\GitRepository\stavebnice03\PIC\interface\usb_descriptors.c
               USB_CD_Ptr   0x003275    program     extern C:\GitRepository\stavebnice03\PIC\interface\usb_descriptors.c
               USB_SD_Ptr   0x003277    program     extern C:\GitRepository\stavebnice03\PIC\interface\usb_descriptors.c
                _do_cinit   0x00327e    program     extern C:\MCC18\src\traditional\startup\c018i.c
                     test   0x003298    program     static                          
                copy_loop   0x0032f0    program     static                          
            copy_one_byte   0x0032f6    program     static                          
             done_copying   0x003304    program     static                          
       ___return_lbl00002   0x00331a    program     static                          
                     done   0x00331a    program     static                          
                   memcpy   0x00331c    program     extern C:\MCC18\src\traditional\stdclib\memcpy.asm
                    jLoop   0x003344    program     static C:\MCC18\src\traditional\stdclib\memcpy.asm
              _4jContinue   0x003350    program     static C:\MCC18\src\traditional\stdclib\memcpy.asm
                   _5jEnd   0x00335a    program     static C:\MCC18\src\traditional\stdclib\memcpy.asm
                     jEnd   0x003360    program     static C:\MCC18\src\traditional\stdclib\memcpy.asm
                   memset   0x003372    program     extern C:\MCC18\src\traditional\stdclib\memset.asm
                    jLoop   0x003386    program     static C:\MCC18\src\traditional\stdclib\memset.asm
              _2jContinue   0x003392    program     static C:\MCC18\src\traditional\stdclib\memset.asm
                   _3jEnd   0x00339c    program     static C:\MCC18\src\traditional\stdclib\memset.asm
                     jEnd   0x0033a4    program     static C:\MCC18\src\traditional\stdclib\memset.asm
                 WriteI2C   0x0033a6    program     extern C:\MCC18\src\pmc_common\i2c\i2c_writ.c
              Write_b_eep   0x003418    program     extern C:\MCC18\src\pmc_common\EEP\write_B.c
                 FXD3232U   0x003466    program     extern C:\MCC18\src\traditional\math\fxd3232u.c
                     loop   0x003474    program     static                          
                   _false   0x0034a8    program     static                          
       ___return_lbl00000   0x0034ac    program     static                          
               Read_b_eep   0x0034ae    program     extern C:\MCC18\src\pmc_common\EEP\read_B.c
       ___return_lbl00000   0x0034e6    program     static                          
                  OpenI2C   0x0034f2    program     extern C:\MCC18\src\pmc_common\i2c\i2c_open.c
            __zero_memory   0x003528    program     extern C:\MCC18\src\traditional\proc\p18F14K50.asm
               zero_block   0x003536    program     static C:\MCC18\src\traditional\proc\p18F14K50.asm
                   loop_h   0x003536    program     static C:\MCC18\src\traditional\proc\p18F14K50.asm
                compare_l   0x00353e    program     static C:\MCC18\src\traditional\proc\p18F14K50.asm
                   loop_l   0x003540    program     static C:\MCC18\src\traditional\proc\p18F14K50.asm
                 _startup   0x003548    program     extern C:\MCC18\src\traditional\startup\c018i.c
                     loop   0x003558    program     static                          
       ___return_lbl00001   0x003562    program     static                          
                  ReadI2C   0x003564    program     extern C:\MCC18\src\pmc_common\i2c\i2c_read.c
                  IdleI2C   0x00357e    program     extern C:\MCC18\src\pmc_common\i2c\i2c_idle.c
               __config_0   0x300000    program     static C:\GitRepository\stavebnice03\PIC\interface\main.c
               __config_1   0x300001    program     static C:\GitRepository\stavebnice03\PIC\interface\main.c
               __config_2   0x300002    program     static C:\GitRepository\stavebnice03\PIC\interface\main.c
               __config_3   0x300003    program     static C:\GitRepository\stavebnice03\PIC\interface\main.c
               __config_4   0x300005    program     static C:\GitRepository\stavebnice03\PIC\interface\main.c
               __config_5   0x300006    program     static C:\GitRepository\stavebnice03\PIC\interface\main.c
               __config_6   0x300008    program     static C:\GitRepository\stavebnice03\PIC\interface\main.c
               __config_7   0x300009    program     static C:\GitRepository\stavebnice03\PIC\interface\main.c
               __config_8   0x30000a    program     static C:\GitRepository\stavebnice03\PIC\interface\main.c
               __config_9   0x30000b    program     static C:\GitRepository\stavebnice03\PIC\interface\main.c
              __config_10   0x30000c    program     static C:\GitRepository\stavebnice03\PIC\interface\main.c
              __config_11   0x30000d    program     static C:\GitRepository\stavebnice03\PIC\interface\main.c
                  __REMB3   0x000000       data     extern C:\MCC18\src\traditional\math\aarg.asm
                 __AARGB7   0x000000       data     extern C:\MCC18\src\traditional\math\aarg.asm
                  __REMB2   0x000001       data     extern C:\MCC18\src\traditional\math\aarg.asm
                 __AARGB6   0x000001       data     extern C:\MCC18\src\traditional\math\aarg.asm
                  __REMB1   0x000002       data     extern C:\MCC18\src\traditional\math\aarg.asm
                 __AARGB5   0x000002       data     extern C:\MCC18\src\traditional\math\aarg.asm
                 __AARGB4   0x000003       data     extern C:\MCC18\src\traditional\math\aarg.asm
                  __REMB0   0x000003       data     extern C:\MCC18\src\traditional\math\aarg.asm
                 __AARGB3   0x000004       data     extern C:\MCC18\src\traditional\math\aarg.asm
                 __AARGB2   0x000005       data     extern C:\MCC18\src\traditional\math\aarg.asm
                 __AARGB1   0x000006       data     extern C:\MCC18\src\traditional\math\aarg.asm
                 __AARGB0   0x000007       data     extern C:\MCC18\src\traditional\math\aarg.asm
                   __AEXP   0x000008       data     extern C:\MCC18\src\traditional\math\aarg.asm
                 __BARGB3   0x000009       data     extern C:\MCC18\src\traditional\math\barg.asm
                 __BARGB2   0x00000a       data     extern C:\MCC18\src\traditional\math\barg.asm
                 __BARGB1   0x00000b       data     extern C:\MCC18\src\traditional\math\barg.asm
                 __BARGB0   0x00000c       data     extern C:\MCC18\src\traditional\math\barg.asm
                   __BEXP   0x00000d       data     extern C:\MCC18\src\traditional\math\barg.asm
                     SIGN   0x00000e       data     extern C:\MCC18\src\traditional\math\cmath18.asm
                __FPFLAGS   0x00000f       data     extern C:\MCC18\src\traditional\math\cmath18.asm
            __FPFLAGSbits   0x00000f       data     extern C:\MCC18\src\traditional\math\cmath18.asm
                  __tmp_0   0x000010       data     static C:\Microchip Solutions v2012-07-18\Microchip\USB\usb_device.c
                  __tmp_0   0x000010       data     static C:\Microchip Solutions v2012-07-18\Microchip\USB\CDC Device Driver\usb_function_cdc.c
                  __tmp_0   0x000010       data     static C:\GitRepository\stavebnice03\PIC\interface\i2c_connector.c
                  __tmp_0   0x000010       data     static C:\GitRepository\stavebnice03\PIC\interface\usb_connector.c
                  __tmp_0   0x000010       data     static C:\MCC18\src\pmc_common\EEP\read_B.c
                  __tmp_0   0x000010       data     static C:\MCC18\src\pmc_common\EEP\write_B.c
                  __tmp_0   0x000010       data     static C:\GitRepository\stavebnice03\PIC\interface\main.c
                 g_buffer   0x000060       data     extern C:\GitRepository\stavebnice03\PIC\interface\usb_connector.c
             g_bufferHead   0x0000a0       data     extern C:\GitRepository\stavebnice03\PIC\interface\usb_connector.c
               NextUSBOut   0x0000a2       data     extern C:\GitRepository\stavebnice03\PIC\interface\usb_connector.c
              delay_count   0x0000a3       data     static C:\GitRepository\stavebnice03\PIC\interface\usb_connector.c
           USBDeviceState   0x0000a5       data     extern C:\Microchip Solutions v2012-07-18\Microchip\USB\usb_device.c
   USBActiveConfiguration   0x0000a6       data     extern C:\Microchip Solutions v2012-07-18\Microchip\USB\usb_device.c
    USBAlternateInterface   0x0000a7       data     extern C:\Microchip Solutions v2012-07-18\Microchip\USB\usb_device.c
   pBDTEntryEP0OutCurrent   0x0000a8       data     extern C:\Microchip Solutions v2012-07-18\Microchip\USB\usb_device.c
      pBDTEntryEP0OutNext   0x0000aa       data     extern C:\Microchip Solutions v2012-07-18\Microchip\USB\usb_device.c
             pBDTEntryOut   0x0000ac       data     extern C:\Microchip Solutions v2012-07-18\Microchip\USB\usb_device.c
              pBDTEntryIn   0x0000b4       data     extern C:\Microchip Solutions v2012-07-18\Microchip\USB\usb_device.c
        shortPacketStatus   0x0000bc       data     extern C:\Microchip Solutions v2012-07-18\Microchip\USB\usb_device.c
     controlTransferState   0x0000bd       data     extern C:\Microchip Solutions v2012-07-18\Microchip\USB\usb_device.c
                  inPipes   0x0000be       data     extern C:\Microchip Solutions v2012-07-18\Microchip\USB\usb_device.c
                 outPipes   0x0000c3       data     extern C:\Microchip Solutions v2012-07-18\Microchip\USB\usb_device.c
                     pDst   0x0000ca       data     extern C:\Microchip Solutions v2012-07-18\Microchip\USB\usb_device.c
             RemoteWakeup   0x0000cc       data     extern C:\Microchip Solutions v2012-07-18\Microchip\USB\usb_device.c
        USBBusIsSuspended   0x0000cd       data     extern C:\Microchip Solutions v2012-07-18\Microchip\USB\usb_device.c
                USTATcopy   0x0000ce       data     extern C:\Microchip Solutions v2012-07-18\Microchip\USB\usb_device.c
          endpoint_number   0x0000cf       data     extern C:\Microchip Solutions v2012-07-18\Microchip\USB\usb_device.c
       BothEP0OutUOWNsSet   0x0000d0       data     extern C:\Microchip Solutions v2012-07-18\Microchip\USB\usb_device.c
               ep_data_in   0x0000d1       data     extern C:\Microchip Solutions v2012-07-18\Microchip\USB\usb_device.c
              ep_data_out   0x0000d5       data     extern C:\Microchip Solutions v2012-07-18\Microchip\USB\usb_device.c
USBStatusStageTimeoutCounter   0x0000d9       data     extern C:\Microchip Solutions v2012-07-18\Microchip\USB\usb_device.c
USBDeferStatusStagePacket   0x0000da       data     extern C:\Microchip Solutions v2012-07-18\Microchip\USB\usb_device.c
USBStatusStageEnabledFlag1   0x0000db       data     extern C:\Microchip Solutions v2012-07-18\Microchip\USB\usb_device.c
USBStatusStageEnabledFlag2   0x0000dc       data     extern C:\Microchip Solutions v2012-07-18\Microchip\USB\usb_device.c
USBDeferINDataStagePackets   0x0000dd       data     extern C:\Microchip Solutions v2012-07-18\Microchip\USB\usb_device.c
USBDeferOUTDataStagePackets   0x0000de       data     extern C:\Microchip Solutions v2012-07-18\Microchip\USB\usb_device.c
               cdc_rx_len   0x0000df       data     extern C:\Microchip Solutions v2012-07-18\Microchip\USB\CDC Device Driver\usb_function_cdc.c
            cdc_trf_state   0x0000e0       data     extern C:\Microchip Solutions v2012-07-18\Microchip\USB\CDC Device Driver\usb_function_cdc.c
                  pCDCSrc   0x0000e1       data     extern C:\Microchip Solutions v2012-07-18\Microchip\USB\CDC Device Driver\usb_function_cdc.c
                  pCDCDst   0x0000e3       data     extern C:\Microchip Solutions v2012-07-18\Microchip\USB\CDC Device Driver\usb_function_cdc.c
               cdc_tx_len   0x0000e5       data     extern C:\Microchip Solutions v2012-07-18\Microchip\USB\CDC Device Driver\usb_function_cdc.c
             cdc_mem_type   0x0000e6       data     extern C:\Microchip Solutions v2012-07-18\Microchip\USB\CDC Device Driver\usb_function_cdc.c
         CDCDataOutHandle   0x0000e7       data     extern C:\Microchip Solutions v2012-07-18\Microchip\USB\CDC Device Driver\usb_function_cdc.c
          CDCDataInHandle   0x0000e9       data     extern C:\Microchip Solutions v2012-07-18\Microchip\USB\CDC Device Driver\usb_function_cdc.c
    control_signal_bitmap   0x0000eb       data     extern C:\Microchip Solutions v2012-07-18\Microchip\USB\CDC Device Driver\usb_function_cdc.c
              BaudRateGen   0x0000ec       data     extern C:\Microchip Solutions v2012-07-18\Microchip\USB\CDC Device Driver\usb_function_cdc.c
dummy_encapsulated_cmd_response   0x0000f0       data     extern C:\Microchip Solutions v2012-07-18\Microchip\USB\CDC Device Driver\usb_function_cdc.c
               out_buffer   0x0000f8       data     extern C:\GitRepository\stavebnice03\PIC\interface\main.c
                     prom   0x000140       data     static C:\MCC18\src\traditional\startup\c018i.c
                curr_byte   0x000143       data     static C:\MCC18\src\traditional\startup\c018i.c
               curr_entry   0x000145       data     static C:\MCC18\src\traditional\startup\c018i.c
                 data_ptr   0x000147       data     static C:\MCC18\src\traditional\startup\c018i.c
               protocolId   0x00014a       data     extern C:\GitRepository\stavebnice03\PIC\interface\main.c
                  g_state   0x00014f       data     extern C:\GitRepository\stavebnice03\PIC\interface\main.c
                      BDT   0x000200       data     extern C:\Microchip Solutions v2012-07-18\Microchip\USB\usb_device.c
                 SetupPkt   0x000240       data     extern C:\Microchip Solutions v2012-07-18\Microchip\USB\usb_device.c
              CtrlTrfData   0x000248       data     extern C:\Microchip Solutions v2012-07-18\Microchip\USB\usb_device.c
               cdc_notice   0x000250       data     extern C:\Microchip Solutions v2012-07-18\Microchip\USB\CDC Device Driver\usb_function_cdc.c
              cdc_data_rx   0x000258       data     extern C:\Microchip Solutions v2012-07-18\Microchip\USB\CDC Device Driver\usb_function_cdc.c
              cdc_data_tx   0x000298       data     extern C:\Microchip Solutions v2012-07-18\Microchip\USB\CDC Device Driver\usb_function_cdc.c
              line_coding   0x0002d8       data     extern C:\Microchip Solutions v2012-07-18\Microchip\USB\CDC Device Driver\usb_function_cdc.c
                     UEP0   0x000f53       data     extern C:\MCC18\src\traditional\proc\p18F14K50.asm
                 UEP0bits   0x000f53       data     extern C:\MCC18\src\traditional\proc\p18F14K50.asm
                 UEP1bits   0x000f54       data     extern C:\MCC18\src\traditional\proc\p18F14K50.asm
                     UEP1   0x000f54       data     extern C:\MCC18\src\traditional\proc\p18F14K50.asm
                 UEP2bits   0x000f55       data     extern C:\MCC18\src\traditional\proc\p18F14K50.asm
                     UEP2   0x000f55       data     extern C:\MCC18\src\traditional\proc\p18F14K50.asm
                 UEP3bits   0x000f56       data     extern C:\MCC18\src\traditional\proc\p18F14K50.asm
                     UEP3   0x000f56       data     extern C:\MCC18\src\traditional\proc\p18F14K50.asm
                     UEP4   0x000f57       data     extern C:\MCC18\src\traditional\proc\p18F14K50.asm
                 UEP4bits   0x000f57       data     extern C:\MCC18\src\traditional\proc\p18F14K50.asm
                 UEP5bits   0x000f58       data     extern C:\MCC18\src\traditional\proc\p18F14K50.asm
                     UEP5   0x000f58       data     extern C:\MCC18\src\traditional\proc\p18F14K50.asm
                 UEP6bits   0x000f59       data     extern C:\MCC18\src\traditional\proc\p18F14K50.asm
                     UEP6   0x000f59       data     extern C:\MCC18\src\traditional\proc\p18F14K50.asm
                 UEP7bits   0x000f5a       data     extern C:\MCC18\src\traditional\proc\p18F14K50.asm
                     UEP7   0x000f5a       data     extern C:\MCC18\src\traditional\proc\p18F14K50.asm
                     UEIE   0x000f5b       data     extern C:\MCC18\src\traditional\proc\p18F14K50.asm
                 UEIEbits   0x000f5b       data     extern C:\MCC18\src\traditional\proc\p18F14K50.asm
                    UADDR   0x000f5c       data     extern C:\MCC18\src\traditional\proc\p18F14K50.asm
                UADDRbits   0x000f5c       data     extern C:\MCC18\src\traditional\proc\p18F14K50.asm
                    UFRML   0x000f5d       data     extern C:\MCC18\src\traditional\proc\p18F14K50.asm
                UFRMLbits   0x000f5d       data     extern C:\MCC18\src\traditional\proc\p18F14K50.asm
                    UFRMH   0x000f5e       data     extern C:\MCC18\src\traditional\proc\p18F14K50.asm
                UFRMHbits   0x000f5e       data     extern C:\MCC18\src\traditional\proc\p18F14K50.asm
                 UEIRbits   0x000f5f       data     extern C:\MCC18\src\traditional\proc\p18F14K50.asm
                     UEIR   0x000f5f       data     extern C:\MCC18\src\traditional\proc\p18F14K50.asm
                      UIE   0x000f60       data     extern C:\MCC18\src\traditional\proc\p18F14K50.asm
                  UIEbits   0x000f60       data     extern C:\MCC18\src\traditional\proc\p18F14K50.asm
                     UCFG   0x000f61       data     extern C:\MCC18\src\traditional\proc\p18F14K50.asm
                 UCFGbits   0x000f61       data     extern C:\MCC18\src\traditional\proc\p18F14K50.asm
                      UIR   0x000f62       data     extern C:\MCC18\src\traditional\proc\p18F14K50.asm
                  UIRbits   0x000f62       data     extern C:\MCC18\src\traditional\proc\p18F14K50.asm
                USTATbits   0x000f63       data     extern C:\MCC18\src\traditional\proc\p18F14K50.asm
                    USTAT   0x000f63       data     extern C:\MCC18\src\traditional\proc\p18F14K50.asm
                 UCONbits   0x000f64       data     extern C:\MCC18\src\traditional\proc\p18F14K50.asm
                     UCON   0x000f64       data     extern C:\MCC18\src\traditional\proc\p18F14K50.asm
                   SRCON0   0x000f68       data     extern C:\MCC18\src\traditional\proc\p18F14K50.asm
               SRCON0bits   0x000f68       data     extern C:\MCC18\src\traditional\proc\p18F14K50.asm
                   SRCON1   0x000f69       data     extern C:\MCC18\src\traditional\proc\p18F14K50.asm
               SRCON1bits   0x000f69       data     extern C:\MCC18\src\traditional\proc\p18F14K50.asm
                  CM2CON0   0x000f6b       data     extern C:\MCC18\src\traditional\proc\p18F14K50.asm
              CM2CON0bits   0x000f6b       data     extern C:\MCC18\src\traditional\proc\p18F14K50.asm
              CM2CON1bits   0x000f6c       data     extern C:\MCC18\src\traditional\proc\p18F14K50.asm
                  CM2CON1   0x000f6c       data     extern C:\MCC18\src\traditional\proc\p18F14K50.asm
                  CM1CON0   0x000f6d       data     extern C:\MCC18\src\traditional\proc\p18F14K50.asm
              CM1CON0bits   0x000f6d       data     extern C:\MCC18\src\traditional\proc\p18F14K50.asm
               SSPMSKbits   0x000f6f       data     extern C:\MCC18\src\traditional\proc\p18F14K50.asm
                   SSPMSK   0x000f6f       data     extern C:\MCC18\src\traditional\proc\p18F14K50.asm
               SLRCONbits   0x000f76       data     extern C:\MCC18\src\traditional\proc\p18F14K50.asm
                   SLRCON   0x000f76       data     extern C:\MCC18\src\traditional\proc\p18F14K50.asm
                 WPUAbits   0x000f77       data     extern C:\MCC18\src\traditional\proc\p18F14K50.asm
                     WPUA   0x000f77       data     extern C:\MCC18\src\traditional\proc\p18F14K50.asm
                 WPUBbits   0x000f78       data     extern C:\MCC18\src\traditional\proc\p18F14K50.asm
                     WPUB   0x000f78       data     extern C:\MCC18\src\traditional\proc\p18F14K50.asm
                 IOCAbits   0x000f79       data     extern C:\MCC18\src\traditional\proc\p18F14K50.asm
                     IOCA   0x000f79       data     extern C:\MCC18\src\traditional\proc\p18F14K50.asm
                 IOCBbits   0x000f7a       data     extern C:\MCC18\src\traditional\proc\p18F14K50.asm
                     IOCB   0x000f7a       data     extern C:\MCC18\src\traditional\proc\p18F14K50.asm
                ANSELbits   0x000f7e       data     extern C:\MCC18\src\traditional\proc\p18F14K50.asm
                    ANSEL   0x000f7e       data     extern C:\MCC18\src\traditional\proc\p18F14K50.asm
               ANSELHbits   0x000f7f       data     extern C:\MCC18\src\traditional\proc\p18F14K50.asm
                   ANSELH   0x000f7f       data     extern C:\MCC18\src\traditional\proc\p18F14K50.asm
                PORTAbits   0x000f80       data     extern C:\MCC18\src\traditional\proc\p18F14K50.asm
                    PORTA   0x000f80       data     extern C:\MCC18\src\traditional\proc\p18F14K50.asm
                PORTBbits   0x000f81       data     extern C:\MCC18\src\traditional\proc\p18F14K50.asm
                    PORTB   0x000f81       data     extern C:\MCC18\src\traditional\proc\p18F14K50.asm
                    PORTC   0x000f82       data     extern C:\MCC18\src\traditional\proc\p18F14K50.asm
                PORTCbits   0x000f82       data     extern C:\MCC18\src\traditional\proc\p18F14K50.asm
                     LATA   0x000f89       data     extern C:\MCC18\src\traditional\proc\p18F14K50.asm
                 LATAbits   0x000f89       data     extern C:\MCC18\src\traditional\proc\p18F14K50.asm
                 LATBbits   0x000f8a       data     extern C:\MCC18\src\traditional\proc\p18F14K50.asm
                     LATB   0x000f8a       data     extern C:\MCC18\src\traditional\proc\p18F14K50.asm
                     LATC   0x000f8b       data     extern C:\MCC18\src\traditional\proc\p18F14K50.asm
                 LATCbits   0x000f8b       data     extern C:\MCC18\src\traditional\proc\p18F14K50.asm
                    TRISA   0x000f92       data     extern C:\MCC18\src\traditional\proc\p18F14K50.asm
                TRISAbits   0x000f92       data     extern C:\MCC18\src\traditional\proc\p18F14K50.asm
                     DDRA   0x000f92       data     extern C:\MCC18\src\traditional\proc\p18F14K50.asm
                 DDRAbits   0x000f92       data     extern C:\MCC18\src\traditional\proc\p18F14K50.asm
                     DDRB   0x000f93       data     extern C:\MCC18\src\traditional\proc\p18F14K50.asm
                 DDRBbits   0x000f93       data     extern C:\MCC18\src\traditional\proc\p18F14K50.asm
                TRISBbits   0x000f93       data     extern C:\MCC18\src\traditional\proc\p18F14K50.asm
                    TRISB   0x000f93       data     extern C:\MCC18\src\traditional\proc\p18F14K50.asm
                TRISCbits   0x000f94       data     extern C:\MCC18\src\traditional\proc\p18F14K50.asm
                    TRISC   0x000f94       data     extern C:\MCC18\src\traditional\proc\p18F14K50.asm
                     DDRC   0x000f94       data     extern C:\MCC18\src\traditional\proc\p18F14K50.asm
                 DDRCbits   0x000f94       data     extern C:\MCC18\src\traditional\proc\p18F14K50.asm
                  OSCTUNE   0x000f9b       data     extern C:\MCC18\src\traditional\proc\p18F14K50.asm
              OSCTUNEbits   0x000f9b       data     extern C:\MCC18\src\traditional\proc\p18F14K50.asm
                     PIE1   0x000f9d       data     extern C:\MCC18\src\traditional\proc\p18F14K50.asm
                 PIE1bits   0x000f9d       data     extern C:\MCC18\src\traditional\proc\p18F14K50.asm
                 PIR1bits   0x000f9e       data     extern C:\MCC18\src\traditional\proc\p18F14K50.asm
                     PIR1   0x000f9e       data     extern C:\MCC18\src\traditional\proc\p18F14K50.asm
                     IPR1   0x000f9f       data     extern C:\MCC18\src\traditional\proc\p18F14K50.asm
                 IPR1bits   0x000f9f       data     extern C:\MCC18\src\traditional\proc\p18F14K50.asm
                 PIE2bits   0x000fa0       data     extern C:\MCC18\src\traditional\proc\p18F14K50.asm
                     PIE2   0x000fa0       data     extern C:\MCC18\src\traditional\proc\p18F14K50.asm
                     PIR2   0x000fa1       data     extern C:\MCC18\src\traditional\proc\p18F14K50.asm
                 PIR2bits   0x000fa1       data     extern C:\MCC18\src\traditional\proc\p18F14K50.asm
                 IPR2bits   0x000fa2       data     extern C:\MCC18\src\traditional\proc\p18F14K50.asm
                     IPR2   0x000fa2       data     extern C:\MCC18\src\traditional\proc\p18F14K50.asm
               EECON1bits   0x000fa6       data     extern C:\MCC18\src\traditional\proc\p18F14K50.asm
                   EECON1   0x000fa6       data     extern C:\MCC18\src\traditional\proc\p18F14K50.asm
                   EECON2   0x000fa7       data     extern C:\MCC18\src\traditional\proc\p18F14K50.asm
                   EEDATA   0x000fa8       data     extern C:\MCC18\src\traditional\proc\p18F14K50.asm
                EEADRbits   0x000fa9       data     extern C:\MCC18\src\traditional\proc\p18F14K50.asm
                    EEADR   0x000fa9       data     extern C:\MCC18\src\traditional\proc\p18F14K50.asm
                RCSTAbits   0x000fab       data     extern C:\MCC18\src\traditional\proc\p18F14K50.asm
                    RCSTA   0x000fab       data     extern C:\MCC18\src\traditional\proc\p18F14K50.asm
                TXSTAbits   0x000fac       data     extern C:\MCC18\src\traditional\proc\p18F14K50.asm
                    TXSTA   0x000fac       data     extern C:\MCC18\src\traditional\proc\p18F14K50.asm
                    TXREG   0x000fad       data     extern C:\MCC18\src\traditional\proc\p18F14K50.asm
                    RCREG   0x000fae       data     extern C:\MCC18\src\traditional\proc\p18F14K50.asm
                    SPBRG   0x000faf       data     extern C:\MCC18\src\traditional\proc\p18F14K50.asm
                   SPBRGH   0x000fb0       data     extern C:\MCC18\src\traditional\proc\p18F14K50.asm
                T3CONbits   0x000fb1       data     extern C:\MCC18\src\traditional\proc\p18F14K50.asm
                    T3CON   0x000fb1       data     extern C:\MCC18\src\traditional\proc\p18F14K50.asm
                    TMR3L   0x000fb2       data     extern C:\MCC18\src\traditional\proc\p18F14K50.asm
                    TMR3H   0x000fb3       data     extern C:\MCC18\src\traditional\proc\p18F14K50.asm
                  ECCP1AS   0x000fb6       data     extern C:\MCC18\src\traditional\proc\p18F14K50.asm
              ECCP1ASbits   0x000fb6       data     extern C:\MCC18\src\traditional\proc\p18F14K50.asm
                  PWM1CON   0x000fb7       data     extern C:\MCC18\src\traditional\proc\p18F14K50.asm
              PWM1CONbits   0x000fb7       data     extern C:\MCC18\src\traditional\proc\p18F14K50.asm
              BAUDCONbits   0x000fb8       data     extern C:\MCC18\src\traditional\proc\p18F14K50.asm
                  BAUDCTL   0x000fb8       data     extern C:\MCC18\src\traditional\proc\p18F14K50.asm
                  BAUDCON   0x000fb8       data     extern C:\MCC18\src\traditional\proc\p18F14K50.asm
              BAUDCTLbits   0x000fb8       data     extern C:\MCC18\src\traditional\proc\p18F14K50.asm
                  PSTRCON   0x000fb9       data     extern C:\MCC18\src\traditional\proc\p18F14K50.asm
              PSTRCONbits   0x000fb9       data     extern C:\MCC18\src\traditional\proc\p18F14K50.asm
                  REFCON0   0x000fba       data     extern C:\MCC18\src\traditional\proc\p18F14K50.asm
              REFCON0bits   0x000fba       data     extern C:\MCC18\src\traditional\proc\p18F14K50.asm
                 VREFCON0   0x000fba       data     extern C:\MCC18\src\traditional\proc\p18F14K50.asm
             VREFCON0bits   0x000fba       data     extern C:\MCC18\src\traditional\proc\p18F14K50.asm
             VREFCON1bits   0x000fbb       data     extern C:\MCC18\src\traditional\proc\p18F14K50.asm
                 VREFCON1   0x000fbb       data     extern C:\MCC18\src\traditional\proc\p18F14K50.asm
              REFCON1bits   0x000fbb       data     extern C:\MCC18\src\traditional\proc\p18F14K50.asm
                  REFCON1   0x000fbb       data     extern C:\MCC18\src\traditional\proc\p18F14K50.asm
              REFCON2bits   0x000fbc       data     extern C:\MCC18\src\traditional\proc\p18F14K50.asm
                  REFCON2   0x000fbc       data     extern C:\MCC18\src\traditional\proc\p18F14K50.asm
                 VREFCON2   0x000fbc       data     extern C:\MCC18\src\traditional\proc\p18F14K50.asm
             VREFCON2bits   0x000fbc       data     extern C:\MCC18\src\traditional\proc\p18F14K50.asm
              CCP1CONbits   0x000fbd       data     extern C:\MCC18\src\traditional\proc\p18F14K50.asm
                  CCP1CON   0x000fbd       data     extern C:\MCC18\src\traditional\proc\p18F14K50.asm
                   CCPR1L   0x000fbe       data     extern C:\MCC18\src\traditional\proc\p18F14K50.asm
                    CCPR1   0x000fbe       data     extern C:\MCC18\src\traditional\proc\p18F14K50.asm
                   CCPR1H   0x000fbf       data     extern C:\MCC18\src\traditional\proc\p18F14K50.asm
               ADCON2bits   0x000fc0       data     extern C:\MCC18\src\traditional\proc\p18F14K50.asm
                   ADCON2   0x000fc0       data     extern C:\MCC18\src\traditional\proc\p18F14K50.asm
                   ADCON1   0x000fc1       data     extern C:\MCC18\src\traditional\proc\p18F14K50.asm
               ADCON1bits   0x000fc1       data     extern C:\MCC18\src\traditional\proc\p18F14K50.asm
                   ADCON0   0x000fc2       data     extern C:\MCC18\src\traditional\proc\p18F14K50.asm
               ADCON0bits   0x000fc2       data     extern C:\MCC18\src\traditional\proc\p18F14K50.asm
                    ADRES   0x000fc3       data     extern C:\MCC18\src\traditional\proc\p18F14K50.asm
                   ADRESL   0x000fc3       data     extern C:\MCC18\src\traditional\proc\p18F14K50.asm
                   ADRESH   0x000fc4       data     extern C:\MCC18\src\traditional\proc\p18F14K50.asm
                  SSPCON2   0x000fc5       data     extern C:\MCC18\src\traditional\proc\p18F14K50.asm
              SSPCON2bits   0x000fc5       data     extern C:\MCC18\src\traditional\proc\p18F14K50.asm
                  SSPCON1   0x000fc6       data     extern C:\MCC18\src\traditional\proc\p18F14K50.asm
              SSPCON1bits   0x000fc6       data     extern C:\MCC18\src\traditional\proc\p18F14K50.asm
                  SSPSTAT   0x000fc7       data     extern C:\MCC18\src\traditional\proc\p18F14K50.asm
              SSPSTATbits   0x000fc7       data     extern C:\MCC18\src\traditional\proc\p18F14K50.asm
                   SSPADD   0x000fc8       data     extern C:\MCC18\src\traditional\proc\p18F14K50.asm
                   SSPBUF   0x000fc9       data     extern C:\MCC18\src\traditional\proc\p18F14K50.asm
                T2CONbits   0x000fca       data     extern C:\MCC18\src\traditional\proc\p18F14K50.asm
                    T2CON   0x000fca       data     extern C:\MCC18\src\traditional\proc\p18F14K50.asm
                      PR2   0x000fcb       data     extern C:\MCC18\src\traditional\proc\p18F14K50.asm
                     TMR2   0x000fcc       data     extern C:\MCC18\src\traditional\proc\p18F14K50.asm
                T1CONbits   0x000fcd       data     extern C:\MCC18\src\traditional\proc\p18F14K50.asm
                    T1CON   0x000fcd       data     extern C:\MCC18\src\traditional\proc\p18F14K50.asm
                    TMR1L   0x000fce       data     extern C:\MCC18\src\traditional\proc\p18F14K50.asm
                    TMR1H   0x000fcf       data     extern C:\MCC18\src\traditional\proc\p18F14K50.asm
                     RCON   0x000fd0       data     extern C:\MCC18\src\traditional\proc\p18F14K50.asm
                 RCONbits   0x000fd0       data     extern C:\MCC18\src\traditional\proc\p18F14K50.asm
               WDTCONbits   0x000fd1       data     extern C:\MCC18\src\traditional\proc\p18F14K50.asm
                   WDTCON   0x000fd1       data     extern C:\MCC18\src\traditional\proc\p18F14K50.asm
                  OSCCON2   0x000fd2       data     extern C:\MCC18\src\traditional\proc\p18F14K50.asm
              OSCCON2bits   0x000fd2       data     extern C:\MCC18\src\traditional\proc\p18F14K50.asm
                   OSCCON   0x000fd3       data     extern C:\MCC18\src\traditional\proc\p18F14K50.asm
               OSCCONbits   0x000fd3       data     extern C:\MCC18\src\traditional\proc\p18F14K50.asm
                T0CONbits   0x000fd5       data     extern C:\MCC18\src\traditional\proc\p18F14K50.asm
                    T0CON   0x000fd5       data     extern C:\MCC18\src\traditional\proc\p18F14K50.asm
                    TMR0L   0x000fd6       data     extern C:\MCC18\src\traditional\proc\p18F14K50.asm
                    TMR0H   0x000fd7       data     extern C:\MCC18\src\traditional\proc\p18F14K50.asm
                   STATUS   0x000fd8       data     extern C:\MCC18\src\traditional\proc\p18F14K50.asm
               STATUSbits   0x000fd8       data     extern C:\MCC18\src\traditional\proc\p18F14K50.asm
                    FSR2L   0x000fd9       data     extern C:\MCC18\src\traditional\proc\p18F14K50.asm
                     FSR2   0x000fd9       data     extern C:\MCC18\src\traditional\proc\p18F14K50.asm
                    FSR2H   0x000fda       data     extern C:\MCC18\src\traditional\proc\p18F14K50.asm
                   PLUSW2   0x000fdb       data     extern C:\MCC18\src\traditional\proc\p18F14K50.asm
                  PREINC2   0x000fdc       data     extern C:\MCC18\src\traditional\proc\p18F14K50.asm
                 POSTDEC2   0x000fdd       data     extern C:\MCC18\src\traditional\proc\p18F14K50.asm
                 POSTINC2   0x000fde       data     extern C:\MCC18\src\traditional\proc\p18F14K50.asm
                    INDF2   0x000fdf       data     extern C:\MCC18\src\traditional\proc\p18F14K50.asm
                      BSR   0x000fe0       data     extern C:\MCC18\src\traditional\proc\p18F14K50.asm
                     FSR1   0x000fe1       data     extern C:\MCC18\src\traditional\proc\p18F14K50.asm
                    FSR1L   0x000fe1       data     extern C:\MCC18\src\traditional\proc\p18F14K50.asm
                    FSR1H   0x000fe2       data     extern C:\MCC18\src\traditional\proc\p18F14K50.asm
                   PLUSW1   0x000fe3       data     extern C:\MCC18\src\traditional\proc\p18F14K50.asm
                  PREINC1   0x000fe4       data     extern C:\MCC18\src\traditional\proc\p18F14K50.asm
                 POSTDEC1   0x000fe5       data     extern C:\MCC18\src\traditional\proc\p18F14K50.asm
                 POSTINC1   0x000fe6       data     extern C:\MCC18\src\traditional\proc\p18F14K50.asm
                    INDF1   0x000fe7       data     extern C:\MCC18\src\traditional\proc\p18F14K50.asm
                     WREG   0x000fe8       data     extern C:\MCC18\src\traditional\proc\p18F14K50.asm
                        W   0x000fe8       data     extern C:\MCC18\src\traditional\proc\p18F14K50.asm
                    FSR0L   0x000fe9       data     extern C:\MCC18\src\traditional\proc\p18F14K50.asm
                     FSR0   0x000fe9       data     extern C:\MCC18\src\traditional\proc\p18F14K50.asm
                    FSR0H   0x000fea       data     extern C:\MCC18\src\traditional\proc\p18F14K50.asm
                   PLUSW0   0x000feb       data     extern C:\MCC18\src\traditional\proc\p18F14K50.asm
                  PREINC0   0x000fec       data     extern C:\MCC18\src\traditional\proc\p18F14K50.asm
                 POSTDEC0   0x000fed       data     extern C:\MCC18\src\traditional\proc\p18F14K50.asm
                 POSTINC0   0x000fee       data     extern C:\MCC18\src\traditional\proc\p18F14K50.asm
                    INDF0   0x000fef       data     extern C:\MCC18\src\traditional\proc\p18F14K50.asm
              INTCON3bits   0x000ff0       data     extern C:\MCC18\src\traditional\proc\p18F14K50.asm
                  INTCON3   0x000ff0       data     extern C:\MCC18\src\traditional\proc\p18F14K50.asm
              INTCON2bits   0x000ff1       data     extern C:\MCC18\src\traditional\proc\p18F14K50.asm
                  INTCON2   0x000ff1       data     extern C:\MCC18\src\traditional\proc\p18F14K50.asm
               INTCONbits   0x000ff2       data     extern C:\MCC18\src\traditional\proc\p18F14K50.asm
                   INTCON   0x000ff2       data     extern C:\MCC18\src\traditional\proc\p18F14K50.asm
                    PRODL   0x000ff3       data     extern C:\MCC18\src\traditional\proc\p18F14K50.asm
                     PROD   0x000ff3       data     extern C:\MCC18\src\traditional\proc\p18F14K50.asm
                    PRODH   0x000ff4       data     extern C:\MCC18\src\traditional\proc\p18F14K50.asm
                   TABLAT   0x000ff5       data     extern C:\MCC18\src\traditional\proc\p18F14K50.asm
                   TBLPTR   0x000ff6       data     extern C:\MCC18\src\traditional\proc\p18F14K50.asm
                  TBLPTRL   0x000ff6       data     extern C:\MCC18\src\traditional\proc\p18F14K50.asm
                  TBLPTRH   0x000ff7       data     extern C:\MCC18\src\traditional\proc\p18F14K50.asm
                  TBLPTRU   0x000ff8       data     extern C:\MCC18\src\traditional\proc\p18F14K50.asm
                      PCL   0x000ff9       data     extern C:\MCC18\src\traditional\proc\p18F14K50.asm
                       PC   0x000ff9       data     extern C:\MCC18\src\traditional\proc\p18F14K50.asm
                   PCLATH   0x000ffa       data     extern C:\MCC18\src\traditional\proc\p18F14K50.asm
                   PCLATU   0x000ffb       data     extern C:\MCC18\src\traditional\proc\p18F14K50.asm
               STKPTRbits   0x000ffc       data     extern C:\MCC18\src\traditional\proc\p18F14K50.asm
                   STKPTR   0x000ffc       data     extern C:\MCC18\src\traditional\proc\p18F14K50.asm
                      TOS   0x000ffd       data     extern C:\MCC18\src\traditional\proc\p18F14K50.asm
                     TOSL   0x000ffd       data     extern C:\MCC18\src\traditional\proc\p18F14K50.asm
                     TOSH   0x000ffe       data     extern C:\MCC18\src\traditional\proc\p18F14K50.asm
                     TOSU   0x000fff       data     extern C:\MCC18\src\traditional\proc\p18F14K50.asm


